(dp0
S'Module001'
p1
(dp2
S'Orientation'
p3
S'NA'
p4
sS'Drift'
p5
I00
sS'Anchor'
p6
(F-105.1172
F42.0
F40000.0
tp7
sS'Other'
p8
F2000.0
sS'Legs'
p9
g4
sS'Type'
p10
S'InitialClimb'
p11
sS'Dimension'
p12
g4
sS'Manvr001'
p13
(dp14
S'EndPoint'
p15
g7
sg3
F360.0
sS'FlightDirection'
p16
F360.0
sg6
(F-105.1172
F39.9089
I5673
tp17
sS'SubType'
p18
NsS'Rate'
p19
F0.0
sS'Time'
p20
F0.29872857168691797
sS'Fuel'
p21
F29014.19571343317
sg10
S'Transit'
p22
sg12
F125.46600010850555
sssS'ManeuverNumber'
p23
I25
sS'Module003'
p24
(dp25
S'Manvr004'
p26
(dp27
g15
(F-104.5
F42.5
F35000.0
tp28
sg3
F-30.69211749991095
sg16
Nsg6
g28
sg18
Nsg19
F0.0
sg20
F0.39420070212017405
sg21
F28699.137683003428
sg10
S'Turn'
p29
sg12
F-0.45658160003592874
ssS'Manvr005'
p30
(dp31
g15
(F-103.5
F43.3
F35000.0
tp32
sg3
F42.14025275858331
sg16
F42.14025275858331
sg6
g28
sg18
Nsg19
F0.0
sg20
F0.5491583319665551
sg21
F28187.77750451037
sg10
g22
sg12
F65.08220453548003
ssS'Manvr006'
p33
(dp34
g15
g32
sg3
F60.0
sg16
Nsg6
g32
sg18
Nsg19
F0.0
sg20
F0.5491448107252079
sg21
F28187.822124606817
sg10
g29
sg12
F-0.005678921365782805
ssS'Manvr007'
p35
(dp36
g15
(F-101.51672203611953
F44.13333333333333
F35000.0
tp37
sg3
F59.14577671056979
sg16
F59.14577671056979
sg6
g32
sg18
Nsg19
F0.0
sg20
F0.7860025913709142
sg21
F27406.191448475987
sg10
g22
sg12
F99.48026787119663
ssS'Manvr013'
p38
(dp39
g15
(F-102.0632250408953
F41.52686324254405
F35000.0
tp40
sg3
F239.16689646130115
sg16
F239.16689646130115
sg6
(F-100.14199550501237
F42.40153269381414
F35000.0
tp41
sg18
Nsg19
F0.0
sg20
F1.7875833016703666
sg21
F24100.975104487796
sg10
g22
sg12
F100.49944830402019
ssg3
F60.0
sS'Manvr011'
p42
(dp43
g15
(F-100.61637667220661
F42.97070931715693
F35000.0
tp44
sg3
F58.623556805262155
sg16
F58.623556805262155
sg6
(F-102.55142408977039
F42.12342052012298
F35000.0
tp45
sg18
Nsg19
F0.0
sg20
F1.4529418788552806
sg21
F25205.29179977758
sg10
g22
sg12
F99.49861044145412
ssS'Manvr010'
p46
(dp47
g15
g45
sg3
F149.44446475303815
sg16
F149.44446475303815
sg6
(F-103.00889806590665
F42.699100846397464
F35000.0
tp48
sg18
Nsg19
F0.0
sg20
F1.2160404254232469
sg21
F25987.06659610329
sg10
g22
sg12
F40.04694868716799
ssS'Manvr008'
p49
(dp50
g15
(F-101.04034815117039
F43.56101671478767
F35000.0
tp51
sg3
F148.85875950309733
sg16
F148.85875950309733
sg6
g37
sg18
Nsg19
F0.0
sg20
F0.8813615376398753
sg21
F27091.506925788417
sg10
g22
sg12
F40.05075743296365
ssg5
I00
sS'Manvr009'
p52
(dp53
g15
g48
sg3
F239.71419146028154
sg16
F239.71419146028154
sg6
g51
sg18
Nsg19
F0.0
sg20
F1.1206905475966564
sg21
F26301.72119293104
sg10
g22
sg12
F100.51818418184804
ssg6
g32
sg8
F40.0
sg9
I4
sg10
S'Lawnmower'
p54
sg12
F100.0
sS'Manvr012'
p55
(dp56
g15
g41
sg3
F148.34510721301274
sg16
F148.34510721301274
sg6
g44
sg18
Nsg19
F0.0
sg20
F1.548298900946509
sg21
F24890.613626876526
sg10
g22
sg12
F40.04994927831588
sssS'Module002'
p57
(dp58
g3
g4
sS'Manvr002'
p59
(dp60
g15
g7
sg3
F317.13649515319514
sg16
Nsg6
g7
sg18
Nsg19
F0.0
sg20
F0.2985324874224537
sg21
F29014.842791505904
sg10
g29
sg12
F-0.08235539107500077
ssS'Manvr003'
p61
(dp62
g15
g28
sg3
F42.211604972557865
sg16
F42.211604972557865
sg6
g7
sg18
Nsg19
F0.0
sg20
F0.39528780116787865
sg21
F28695.550256146
sg10
g22
sg12
F40.63723177307848
ssg5
I00
sg6
g28
sg8
g4
sg9
g4
sg10
S'Enroute'
p63
sg12
g4
ssS'Module005'
p64
(dp65
g3
g4
sg5
I00
sg6
(F-103.0
F38.0
F40000.0
tp66
sg8
g4
sg9
g4
sg10
S'ReturnToBase'
p67
sg12
g4
sS'Manvr024'
p68
(dp69
g15
(F-103.0
F38.0
F37000.0
tp70
sg3
F46.176385088505725
sg16
Nsg6
g70
sg18
Nsg19
F0.0
sg20
F3.2597273660383164
sg21
F19242.89969207356
sg10
g29
sg12
F15.352971997467247
ssS'Manvr025'
p71
(dp72
g15
g17
sg3
F319.8832755572879
sg16
F319.8832755572879
sg6
g70
sg18
Nsg19
F0.0
sg20
F3.6198229794457935
sg21
F18054.584167828885
sg10
g22
sg12
F151.24015763114033
sssS'Module004'
p73
(dp74
S'Manvr017'
p75
(dp76
g15
(F-103.9705052606212
F39.09220272571866
F40000.0
tp77
sg3
F325.5035343572667
sg16
F325.5035343572667
sg6
(F-103.0
F38.0
F40000.0
tp78
sg18
Nsg19
F0.0
sg20
F2.536491352816994
sg21
F21629.578535703924
sg10
g22
sg12
F79.80205118516274
ssS'Manvr016'
p79
(dp80
g15
g78
sg3
F325.0
sg16
Nsg6
g78
sg18
Nsg19
F0.0
sg20
F2.346486469042797
sg21
F22256.594652158776
sg10
g29
sg12
F19.109396857750344
ssS'Manvr015'
p81
(dp82
g15
g78
sg3
F191.8414220190866
sg16
F191.8414220190866
sg6
g40
sg18
Nsg19
F0.0
sg20
F2.3009879050957727
sg21
F22406.739913183956
sg10
g22
sg12
F215.97322521221582
ssS'Manvr014'
p83
(dp84
g15
g40
sg3
F172.21029195835024
sg16
Nsg6
g40
sg18
Nsg19
F0.0
sg20
F1.7867659403047826
sg21
F24103.67239699422
sg10
g29
sg12
F-0.3432917735452982
ssg3
F325.0
sS'Manvr018'
p85
(dp86
g15
(F-103.9705052606212
F39.09220272571866
F39000.0
tp87
sg3
F325.5035343572667
sg16
Nsg6
g87
sg18
Nsg19
F0.0
sg20
F2.575380241705883
sg21
F21501.245202370592
sg10
S'TearDrop'
p88
sg12
F16.333333333333332
ssS'Manvr021'
p89
(dp90
g15
(F-103.9705052606212
F39.09220272571866
F38000.0
tp91
sg3
F325.5035343572667
sg16
F325.5035343572667
sg6
(F-103.0
F38.0
F38000.0
tp92
sg18
Nsg19
F0.0
sg20
F2.9942788981431656
sg21
F20118.879636127556
sg10
g22
sg12
F79.80205118516274
ssg5
I00
sS'Manvr019'
p93
(dp94
g15
(F-103.0
F38.0
F39000.0
tp95
sg3
F144.89873337775543
sg16
F144.89873337775543
sg6
g87
sg18
Nsg19
F0.0
sg20
F2.76538512548008
sg21
F20874.22908591574
sg10
g22
sg12
F79.80205118516274
ssg6
g78
sg8
F-1000.0
sS'Manvr022'
p96
(dp97
g15
(F-103.9705052606212
F39.09220272571866
F37000.0
tp98
sg3
F325.5035343572667
sg16
Nsg6
g98
sg18
Nsg19
F0.0
sg20
F3.0331677870320544
sg21
F19990.546302794224
sg10
g88
sg12
F16.333333333333332
ssS'Manvr023'
p99
(dp100
g15
g70
sg3
F144.89873337775543
sg16
F144.89873337775543
sg6
g98
sg18
Nsg19
F0.0
sg20
F3.2231726708062514
sg21
F19363.530186339372
sg10
g22
sg12
F79.80205118516274
ssS'Manvr020'
p101
(dp102
g15
g92
sg3
F144.89873337775543
sg16
Nsg6
g92
sg18
Nsg19
F0.0
sg20
F2.8042740143689686
sg21
F20745.895752582408
sg10
g88
sg12
F16.333333333333332
ssg9
I4
sg10
S'VerticalSection'
p103
sg12
F80.0
ssg16
F319.8832755572879
sS'Comment'
p104
VTest Plan - checking module editing
p105
sS'AC'
p106
g17
sg20
F3.6198229794457935
sg21
F18054.584167828885
sS'Specs'
p107
(dp108
S'OutputFormat'
p109
S'LATLON'
p110
sS'FuelBurn'
p111
F3300.0
sS'MaxTurn'
p112
F3.0
sS'Airport'
p113
g17
sS'FuelLimit'
p114
F30000.0
sS'FlightSpeed'
p115
F420.0
sS'FormatCode'
p116
I1
sS'Wind'
p117
(F270.0
F30.0
tp118
ssS'ModuleNumber'
p119
I5
s.