(dp0
S'43000'
p1
(dp2
S'55.0'
p3
(dp4
S'0.660'
p5
F0.201
sS'0.640'
p6
F0.198
sS'0.760'
p7
F0.198
sS'0.600'
p8
F0.19
sS'0.720'
p9
F0.2
sS'0.740'
p10
F0.199
sS'0.800'
p11
F0.195
sS'0.690'
p12
F0.202
sS'0.840'
p13
F0.186
sS'0.860'
p14
F0.172
sS'0.820'
p15
F0.192
sS'0.790'
p16
F0.196
sS'0.630'
p17
F0.197
sS'0.710'
p18
F0.201
sS'0.750'
p19
F0.199
sS'0.770'
p20
F0.197
sS'0.650'
p21
F0.2
sS'0.730'
p22
F0.2
sS'0.610'
p23
F0.193
sS'0.670'
p24
F0.202
sS'0.810'
p25
F0.194
sS'0.680'
p26
F0.202
sS'0.870'
p27
F0.16
sS'0.780'
p28
F0.197
sS'0.830'
p29
F0.19
sS'0.850'
p30
F0.18
sS'0.700'
p31
F0.202
sS'0.620'
p32
F0.195
ssS'80.0'
p33
(dp34
S'0.750'
p35
F0.155
sS'0.770'
p36
F0.157
sS'0.760'
p37
F0.156
sS'0.780'
p38
F0.157
sS'0.730'
p39
F0.152
sS'0.830'
p40
F0.148
sS'0.740'
p41
F0.154
sS'0.790'
p42
F0.157
sS'0.810'
p43
F0.155
sS'0.800'
p44
F0.156
sS'0.820'
p45
F0.152
ssS'70.0'
p46
(dp47
S'0.810'
p48
F0.173
sS'0.680'
p49
F0.167
sS'0.690'
p50
F0.17
sS'0.750'
p51
F0.175
sS'0.770'
p52
F0.175
sS'0.760'
p53
F0.175
sS'0.780'
p54
F0.175
sS'0.730'
p55
F0.174
sS'0.720'
p56
F0.174
sS'0.800'
p57
F0.174
sS'0.740'
p58
F0.175
sS'0.790'
p59
F0.174
sS'0.700'
p60
F0.171
sS'0.840'
p61
F0.164
sS'0.710'
p62
F0.173
sS'0.820'
p63
F0.171
sS'0.830'
p64
F0.169
sS'0.850'
p65
F0.155
ssS'75.0'
p66
(dp67
S'0.810'
p68
F0.165
sS'0.750'
p69
F0.166
sS'0.770'
p70
F0.166
sS'0.760'
p71
F0.166
sS'0.780'
p72
F0.166
sS'0.730'
p73
F0.164
sS'0.720'
p74
F0.162
sS'0.800'
p75
F0.165
sS'0.740'
p76
F0.165
sS'0.790'
p77
F0.166
sS'0.700'
p78
F0.158
sS'0.840'
p79
F0.153
sS'0.710'
p80
F0.161
sS'0.820'
p81
F0.163
sS'0.830'
p82
F0.159
sS'0.850'
p83
F0.146
ssS'65.0'
p84
(dp85
S'0.810'
p86
F0.181
sS'0.680'
p87
F0.18
sS'0.690'
p88
F0.182
sS'0.660'
p89
F0.176
sS'0.770'
p90
F0.182
sS'0.760'
p91
F0.182
sS'0.780'
p92
F0.181
sS'0.730'
p93
F0.183
sS'0.720'
p94
F0.184
sS'0.800'
p95
F0.181
sS'0.670'
p96
F0.178
sS'0.840'
p97
F0.172
sS'0.740'
p98
F0.183
sS'0.790'
p99
F0.181
sS'0.700'
p100
F0.183
sS'0.750'
p101
F0.183
sS'0.710'
p102
F0.184
sS'0.820'
p103
F0.18
sS'0.830'
p104
F0.177
sS'0.860'
p105
F0.151
sS'0.850'
p106
F0.164
ssS'60.0'
p107
(dp108
S'0.660'
p109
F0.189
sS'0.640'
p110
F0.186
sS'0.760'
p111
F0.19
sS'0.720'
p112
F0.192
sS'0.740'
p113
F0.191
sS'0.800'
p114
F0.189
sS'0.690'
p115
F0.193
sS'0.840'
p116
F0.178
sS'0.860'
p117
F0.163
sS'0.820'
p118
F0.186
sS'0.790'
p119
F0.189
sS'0.630'
p120
F0.184
sS'0.710'
p121
F0.193
sS'0.750'
p122
F0.191
sS'0.770'
p123
F0.19
sS'0.650'
p124
F0.188
sS'0.730'
p125
F0.192
sS'0.670'
p126
F0.191
sS'0.810'
p127
F0.188
sS'0.680'
p128
F0.192
sS'0.870'
p129
F0.151
sS'0.780'
p130
F0.19
sS'0.830'
p131
F0.183
sS'0.850'
p132
F0.171
sS'0.700'
p133
F0.193
ssS'50.0'
p134
(dp135
S'0.660'
p136
F0.211
sS'0.640'
p137
F0.21
sS'0.760'
p138
F0.205
sS'0.600'
p139
F0.204
sS'0.580'
p140
F0.2
sS'0.740'
p141
F0.207
sS'0.880'
p142
F0.154
sS'0.800'
p143
F0.201
sS'0.690'
p144
F0.21
sS'0.840'
p145
F0.191
sS'0.860'
p146
F0.177
sS'0.820'
p147
F0.198
sS'0.790'
p148
F0.203
sS'0.630'
p149
F0.209
sS'0.710'
p150
F0.209
sS'0.570'
p151
F0.198
sS'0.720'
p152
F0.208
sS'0.750'
p153
F0.206
sS'0.770'
p154
F0.204
sS'0.650'
p155
F0.211
sS'0.590'
p156
F0.202
sS'0.610'
p157
F0.206
sS'0.670'
p158
F0.211
sS'0.810'
p159
F0.2
sS'0.680'
p160
F0.211
sS'0.870'
p161
F0.167
sS'0.730'
p162
F0.207
sS'0.780'
p163
F0.204
sS'0.830'
p164
F0.195
sS'0.850'
p165
F0.185
sS'0.700'
p166
F0.21
sS'0.620'
p167
F0.208
ssS'85.0'
p168
(dp169
S'0.750'
p170
F0.142
sS'0.770'
p171
F0.144
sS'0.760'
p172
F0.143
sS'0.780'
p173
F0.145
sS'0.790'
p174
F0.145
sS'0.810'
p175
F0.142
sS'0.800'
p176
F0.145
sssS'5000'
p177
(dp178
S'55.0'
p179
(dp180
S'0.480'
p181
F0.077
sS'0.310'
p182
F0.083
sS'0.330'
p183
F0.084
sS'0.390'
p184
F0.084
sS'0.290'
p185
F0.081
sS'0.470'
p186
F0.078
sS'0.410'
p187
F0.082
sS'0.450'
p188
F0.079
sS'0.360'
p189
F0.085
sS'0.300'
p190
F0.082
sS'0.340'
p191
F0.085
sS'0.430'
p192
F0.081
sS'0.490'
p193
F0.076
sS'0.320'
p194
F0.084
sS'0.280'
p195
F0.08
sS'0.380'
p196
F0.084
sS'0.460'
p197
F0.079
sS'0.440'
p198
F0.08
sS'0.370'
p199
F0.084
sS'0.270'
p200
F0.078
sS'0.400'
p201
F0.083
sS'0.420'
p202
F0.082
sS'0.350'
p203
F0.085
ssS'80.0'
p204
(dp205
S'0.460'
p206
F0.074
sS'0.470'
p207
F0.073
sS'0.480'
p208
F0.073
sS'0.410'
p209
F0.076
sS'0.450'
p210
F0.074
sS'0.490'
p211
F0.072
sS'0.330'
p212
F0.072
sS'0.320'
p213
F0.071
sS'0.440'
p214
F0.075
sS'0.370'
p215
F0.075
sS'0.360'
p216
F0.075
sS'0.390'
p217
F0.076
sS'0.340'
p218
F0.073
sS'0.400'
p219
F0.076
sS'0.380'
p220
F0.075
sS'0.420'
p221
F0.076
sS'0.430'
p222
F0.075
sS'0.350'
p223
F0.074
ssS'70.0'
p224
(dp225
S'0.460'
p226
F0.076
sS'0.470'
p227
F0.075
sS'0.480'
p228
F0.075
sS'0.410'
p229
F0.078
sS'0.450'
p230
F0.077
sS'0.310'
p231
F0.075
sS'0.490'
p232
F0.074
sS'0.330'
p233
F0.077
sS'0.320'
p234
F0.076
sS'0.440'
p235
F0.077
sS'0.370'
p236
F0.079
sS'0.360'
p237
F0.079
sS'0.390'
p238
F0.079
sS'0.300'
p239
F0.074
sS'0.340'
p240
F0.078
sS'0.400'
p241
F0.079
sS'0.380'
p242
F0.079
sS'0.420'
p243
F0.078
sS'0.430'
p244
F0.078
sS'0.350'
p245
F0.078
ssS'95.0'
p246
(dp247
S'0.460'
p248
F0.071
sS'0.470'
p249
F0.07
sS'0.480'
p250
F0.07
sS'0.410'
p251
F0.071
sS'0.450'
p252
F0.071
sS'0.490'
p253
F0.07
sS'0.440'
p254
F0.071
sS'0.370'
p255
F0.069
sS'0.360'
p256
F0.068
sS'0.390'
p257
F0.071
sS'0.400'
p258
F0.071
sS'0.380'
p259
F0.07
sS'0.420'
p260
F0.071
sS'0.430'
p261
F0.071
sS'0.350'
p262
F0.067
ssS'90.0'
p263
(dp264
S'0.460'
p265
F0.072
sS'0.470'
p266
F0.071
sS'0.480'
p267
F0.071
sS'0.410'
p268
F0.073
sS'0.450'
p269
F0.072
sS'0.490'
p270
F0.071
sS'0.440'
p271
F0.072
sS'0.370'
p272
F0.071
sS'0.360'
p273
F0.071
sS'0.390'
p274
F0.072
sS'0.340'
p275
F0.068
sS'0.400'
p276
F0.072
sS'0.380'
p277
F0.072
sS'0.420'
p278
F0.073
sS'0.430'
p279
F0.073
sS'0.350'
p280
F0.07
ssS'75.0'
p281
(dp282
S'0.460'
p283
F0.075
sS'0.470'
p284
F0.074
sS'0.480'
p285
F0.074
sS'0.410'
p286
F0.077
sS'0.450'
p287
F0.076
sS'0.310'
p288
F0.072
sS'0.490'
p289
F0.073
sS'0.330'
p290
F0.075
sS'0.320'
p291
F0.074
sS'0.440'
p292
F0.076
sS'0.370'
p293
F0.077
sS'0.360'
p294
F0.077
sS'0.390'
p295
F0.077
sS'0.340'
p296
F0.076
sS'0.400'
p297
F0.077
sS'0.380'
p298
F0.077
sS'0.420'
p299
F0.077
sS'0.430'
p300
F0.076
sS'0.350'
p301
F0.076
ssS'65.0'
p302
(dp303
S'0.460'
p304
F0.077
sS'0.470'
p305
F0.076
sS'0.480'
p306
F0.075
sS'0.410'
p307
F0.08
sS'0.450'
p308
F0.078
sS'0.310'
p309
F0.078
sS'0.490'
p310
F0.075
sS'0.330'
p311
F0.08
sS'0.320'
p312
F0.079
sS'0.440'
p313
F0.078
sS'0.370'
p314
F0.081
sS'0.360'
p315
F0.081
sS'0.390'
p316
F0.081
sS'0.300'
p317
F0.077
sS'0.290'
p318
F0.075
sS'0.340'
p319
F0.08
sS'0.400'
p320
F0.08
sS'0.380'
p321
F0.081
sS'0.420'
p322
F0.079
sS'0.430'
p323
F0.079
sS'0.350'
p324
F0.08
ssS'60.0'
p325
(dp326
S'0.480'
p327
F0.076
sS'0.310'
p328
F0.081
sS'0.330'
p329
F0.082
sS'0.390'
p330
F0.082
sS'0.290'
p331
F0.078
sS'0.470'
p332
F0.077
sS'0.410'
p333
F0.081
sS'0.450'
p334
F0.079
sS'0.360'
p335
F0.083
sS'0.300'
p336
F0.08
sS'0.340'
p337
F0.082
sS'0.430'
p338
F0.08
sS'0.490'
p339
F0.075
sS'0.320'
p340
F0.081
sS'0.280'
p341
F0.077
sS'0.380'
p342
F0.082
sS'0.460'
p343
F0.078
sS'0.440'
p344
F0.079
sS'0.370'
p345
F0.083
sS'0.400'
p346
F0.082
sS'0.420'
p347
F0.081
sS'0.350'
p348
F0.083
ssS'50.0'
p349
(dp350
S'0.480'
p351
F0.077
sS'0.310'
p352
F0.086
sS'0.330'
p353
F0.086
sS'0.390'
p354
F0.085
sS'0.290'
p355
F0.084
sS'0.470'
p356
F0.078
sS'0.410'
p357
F0.084
sS'0.450'
p358
F0.08
sS'0.360'
p359
F0.086
sS'0.300'
p360
F0.085
sS'0.340'
p361
F0.086
sS'0.430'
p362
F0.082
sS'0.260'
p363
F0.08
sS'0.490'
p364
F0.076
sS'0.320'
p365
F0.086
sS'0.280'
p366
F0.083
sS'0.380'
p367
F0.085
sS'0.460'
p368
F0.079
sS'0.440'
p369
F0.081
sS'0.370'
p370
F0.086
sS'0.270'
p371
F0.082
sS'0.400'
p372
F0.084
sS'0.420'
p373
F0.083
sS'0.350'
p374
F0.086
ssS'85.0'
p375
(dp376
S'0.460'
p377
F0.073
sS'0.470'
p378
F0.072
sS'0.480'
p379
F0.072
sS'0.410'
p380
F0.074
sS'0.450'
p381
F0.073
sS'0.490'
p382
F0.071
sS'0.330'
p383
F0.07
sS'0.440'
p384
F0.074
sS'0.370'
p385
F0.073
sS'0.360'
p386
F0.073
sS'0.390'
p387
F0.074
sS'0.340'
p388
F0.071
sS'0.400'
p389
F0.074
sS'0.380'
p390
F0.074
sS'0.420'
p391
F0.074
sS'0.430'
p392
F0.074
sS'0.350'
p393
F0.072
sssS'25000'
p394
(dp395
S'55.0'
p396
(dp397
S'0.480'
p398
F0.137
sS'0.640'
p399
F0.125
sS'0.760'
p400
F0.109
sS'0.600'
p401
F0.129
sS'0.580'
p402
F0.131
sS'0.740'
p403
F0.112
sS'0.660'
p404
F0.122
sS'0.720'
p405
F0.115
sS'0.800'
p406
F0.103
sS'0.790'
p407
F0.105
sS'0.510'
p408
F0.136
sS'0.470'
p409
F0.136
sS'0.410'
p410
F0.131
sS'0.450'
p411
F0.135
sS'0.530'
p412
F0.136
sS'0.630'
p413
F0.126
sS'0.710'
p414
F0.116
sS'0.570'
p415
F0.132
sS'0.550'
p416
F0.134
sS'0.430'
p417
F0.134
sS'0.750'
p418
F0.111
sS'0.770'
p419
F0.108
sS'0.650'
p420
F0.123
sS'0.680'
p421
F0.12
sS'0.590'
p422
F0.13
sS'0.610'
p423
F0.128
sS'0.490'
p424
F0.137
sS'0.690'
p425
F0.118
sS'0.460'
p426
F0.136
sS'0.500'
p427
F0.136
sS'0.560'
p428
F0.133
sS'0.730'
p429
F0.113
sS'0.520'
p430
F0.136
sS'0.440'
p431
F0.135
sS'0.700'
p432
F0.117
sS'0.780'
p433
F0.106
sS'0.620'
p434
F0.127
sS'0.670'
p435
F0.121
sS'0.400'
p436
F0.129
sS'0.420'
p437
F0.132
sS'0.540'
p438
F0.135
ssS'80.0'
p439
(dp440
S'0.480'
p441
F0.111
sS'0.640'
p442
F0.114
sS'0.760'
p443
F0.103
sS'0.600'
p444
F0.116
sS'0.580'
p445
F0.117
sS'0.740'
p446
F0.105
sS'0.660'
p447
F0.112
sS'0.720'
p448
F0.107
sS'0.800'
p449
F0.098
sS'0.790'
p450
F0.1
sS'0.510'
p451
F0.114
sS'0.690'
p452
F0.11
sS'0.530'
p453
F0.116
sS'0.630'
p454
F0.114
sS'0.710'
p455
F0.108
sS'0.570'
p456
F0.117
sS'0.550'
p457
F0.116
sS'0.750'
p458
F0.104
sS'0.770'
p459
F0.102
sS'0.650'
p460
F0.113
sS'0.590'
p461
F0.116
sS'0.610'
p462
F0.116
sS'0.490'
p463
F0.112
sS'0.680'
p464
F0.11
sS'0.500'
p465
F0.113
sS'0.560'
p466
F0.117
sS'0.730'
p467
F0.106
sS'0.520'
p468
F0.115
sS'0.700'
p469
F0.109
sS'0.780'
p470
F0.101
sS'0.620'
p471
F0.115
sS'0.670'
p472
F0.111
sS'0.540'
p473
F0.116
ssS'70.0'
p474
(dp475
S'0.480'
p476
F0.121
sS'0.640'
p477
F0.118
sS'0.760'
p478
F0.106
sS'0.600'
p479
F0.121
sS'0.580'
p480
F0.123
sS'0.740'
p481
F0.108
sS'0.660'
p482
F0.116
sS'0.720'
p483
F0.11
sS'0.800'
p484
F0.101
sS'0.790'
p485
F0.102
sS'0.510'
p486
F0.123
sS'0.470'
p487
F0.12
sS'0.450'
p488
F0.118
sS'0.530'
p489
F0.124
sS'0.630'
p490
F0.119
sS'0.710'
p491
F0.111
sS'0.570'
p492
F0.123
sS'0.550'
p493
F0.124
sS'0.750'
p494
F0.107
sS'0.770'
p495
F0.105
sS'0.650'
p496
F0.117
sS'0.680'
p497
F0.114
sS'0.590'
p498
F0.122
sS'0.610'
p499
F0.121
sS'0.490'
p500
F0.122
sS'0.690'
p501
F0.113
sS'0.460'
p502
F0.119
sS'0.500'
p503
F0.123
sS'0.560'
p504
F0.123
sS'0.730'
p505
F0.109
sS'0.520'
p506
F0.124
sS'0.700'
p507
F0.112
sS'0.780'
p508
F0.103
sS'0.620'
p509
F0.12
sS'0.670'
p510
F0.115
sS'0.540'
p511
F0.124
ssS'95.0'
p512
(dp513
S'0.660'
p514
F0.106
sS'0.640'
p515
F0.107
sS'0.760'
p516
F0.099
sS'0.600'
p517
F0.107
sS'0.580'
p518
F0.107
sS'0.740'
p519
F0.1
sS'0.800'
p520
F0.095
sS'0.790'
p521
F0.096
sS'0.690'
p522
F0.104
sS'0.530'
p523
F0.103
sS'0.630'
p524
F0.107
sS'0.730'
p525
F0.101
sS'0.570'
p526
F0.106
sS'0.720'
p527
F0.102
sS'0.750'
p528
F0.1
sS'0.770'
p529
F0.098
sS'0.650'
p530
F0.106
sS'0.590'
p531
F0.107
sS'0.610'
p532
F0.107
sS'0.710'
p533
F0.103
sS'0.670'
p534
F0.105
sS'0.680'
p535
F0.105
sS'0.560'
p536
F0.106
sS'0.520'
p537
F0.102
sS'0.550'
p538
F0.105
sS'0.700'
p539
F0.103
sS'0.780'
p540
F0.097
sS'0.620'
p541
F0.107
sS'0.540'
p542
F0.104
ssS'90.0'
p543
(dp544
S'0.660'
p545
F0.108
sS'0.640'
p546
F0.109
sS'0.760'
p547
F0.1
sS'0.600'
p548
F0.11
sS'0.580'
p549
F0.11
sS'0.740'
p550
F0.102
sS'0.800'
p551
F0.096
sS'0.790'
p552
F0.097
sS'0.510'
p553
F0.105
sS'0.690'
p554
F0.106
sS'0.530'
p555
F0.107
sS'0.630'
p556
F0.109
sS'0.710'
p557
F0.104
sS'0.570'
p558
F0.11
sS'0.720'
p559
F0.103
sS'0.750'
p560
F0.101
sS'0.770'
p561
F0.099
sS'0.650'
p562
F0.108
sS'0.590'
p563
F0.11
sS'0.610'
p564
F0.11
sS'0.670'
p565
F0.107
sS'0.680'
p566
F0.107
sS'0.560'
p567
F0.11
sS'0.730'
p568
F0.103
sS'0.520'
p569
F0.106
sS'0.550'
p570
F0.109
sS'0.700'
p571
F0.105
sS'0.780'
p572
F0.098
sS'0.620'
p573
F0.11
sS'0.540'
p574
F0.108
ssS'75.0'
p575
(dp576
S'0.480'
p577
F0.116
sS'0.640'
p578
F0.116
sS'0.760'
p579
F0.104
sS'0.600'
p580
F0.119
sS'0.580'
p581
F0.12
sS'0.740'
p582
F0.106
sS'0.660'
p583
F0.114
sS'0.720'
p584
F0.108
sS'0.800'
p585
F0.099
sS'0.790'
p586
F0.101
sS'0.510'
p587
F0.119
sS'0.470'
p588
F0.115
sS'0.530'
p589
F0.12
sS'0.630'
p590
F0.117
sS'0.710'
p591
F0.109
sS'0.570'
p592
F0.12
sS'0.550'
p593
F0.12
sS'0.750'
p594
F0.105
sS'0.770'
p595
F0.103
sS'0.650'
p596
F0.115
sS'0.680'
p597
F0.112
sS'0.590'
p598
F0.119
sS'0.610'
p599
F0.118
sS'0.490'
p600
F0.117
sS'0.690'
p601
F0.111
sS'0.460'
p602
F0.113
sS'0.500'
p603
F0.118
sS'0.560'
p604
F0.12
sS'0.730'
p605
F0.107
sS'0.520'
p606
F0.119
sS'0.700'
p607
F0.11
sS'0.780'
p608
F0.102
sS'0.620'
p609
F0.117
sS'0.670'
p610
F0.113
sS'0.540'
p611
F0.12
ssS'65.0'
p612
(dp613
S'0.480'
p614
F0.126
sS'0.640'
p615
F0.12
sS'0.760'
p616
F0.107
sS'0.600'
p617
F0.124
sS'0.580'
p618
F0.126
sS'0.740'
p619
F0.11
sS'0.660'
p620
F0.118
sS'0.720'
p621
F0.112
sS'0.800'
p622
F0.102
sS'0.790'
p623
F0.103
sS'0.510'
p624
F0.128
sS'0.470'
p625
F0.126
sS'0.450'
p626
F0.123
sS'0.530'
p627
F0.128
sS'0.630'
p628
F0.121
sS'0.710'
p629
F0.113
sS'0.570'
p630
F0.126
sS'0.550'
p631
F0.127
sS'0.430'
p632
F0.121
sS'0.750'
p633
F0.108
sS'0.770'
p634
F0.106
sS'0.650'
p635
F0.119
sS'0.680'
p636
F0.116
sS'0.590'
p637
F0.125
sS'0.610'
p638
F0.123
sS'0.490'
p639
F0.127
sS'0.690'
p640
F0.115
sS'0.460'
p641
F0.125
sS'0.500'
p642
F0.127
sS'0.560'
p643
F0.127
sS'0.730'
p644
F0.111
sS'0.520'
p645
F0.128
sS'0.440'
p646
F0.122
sS'0.700'
p647
F0.114
sS'0.780'
p648
F0.104
sS'0.620'
p649
F0.122
sS'0.670'
p650
F0.117
sS'0.540'
p651
F0.128
ssS'60.0'
p652
(dp653
S'0.480'
p654
F0.132
sS'0.640'
p655
F0.122
sS'0.760'
p656
F0.108
sS'0.600'
p657
F0.126
sS'0.580'
p658
F0.128
sS'0.740'
p659
F0.111
sS'0.660'
p660
F0.12
sS'0.720'
p661
F0.113
sS'0.800'
p662
F0.102
sS'0.790'
p663
F0.104
sS'0.510'
p664
F0.132
sS'0.470'
p665
F0.131
sS'0.450'
p666
F0.13
sS'0.530'
p667
F0.132
sS'0.630'
p668
F0.123
sS'0.710'
p669
F0.114
sS'0.570'
p670
F0.129
sS'0.550'
p671
F0.131
sS'0.430'
p672
F0.127
sS'0.750'
p673
F0.11
sS'0.770'
p674
F0.107
sS'0.650'
p675
F0.121
sS'0.680'
p676
F0.118
sS'0.590'
p677
F0.127
sS'0.610'
p678
F0.125
sS'0.490'
p679
F0.132
sS'0.690'
p680
F0.117
sS'0.460'
p681
F0.13
sS'0.500'
p682
F0.132
sS'0.560'
p683
F0.13
sS'0.730'
p684
F0.112
sS'0.520'
p685
F0.132
sS'0.440'
p686
F0.128
sS'0.700'
p687
F0.116
sS'0.780'
p688
F0.106
sS'0.620'
p689
F0.124
sS'0.670'
p690
F0.119
sS'0.420'
p691
F0.125
sS'0.540'
p692
F0.131
ssS'50.0'
p693
(dp694
S'0.480'
p695
F0.141
sS'0.640'
p696
F0.126
sS'0.760'
p697
F0.111
sS'0.600'
p698
F0.132
sS'0.580'
p699
F0.134
sS'0.740'
p700
F0.113
sS'0.390'
p701
F0.135
sS'0.720'
p702
F0.116
sS'0.800'
p703
F0.104
sS'0.790'
p704
F0.106
sS'0.510'
p705
F0.14
sS'0.470'
p706
F0.142
sS'0.410'
p707
F0.138
sS'0.450'
p708
F0.141
sS'0.530'
p709
F0.139
sS'0.630'
p710
F0.128
sS'0.710'
p711
F0.117
sS'0.570'
p712
F0.135
sS'0.550'
p713
F0.137
sS'0.430'
p714
F0.14
sS'0.750'
p715
F0.112
sS'0.770'
p716
F0.109
sS'0.650'
p717
F0.125
sS'0.680'
p718
F0.121
sS'0.590'
p719
F0.133
sS'0.610'
p720
F0.13
sS'0.490'
p721
F0.141
sS'0.690'
p722
F0.12
sS'0.660'
p723
F0.124
sS'0.380'
p724
F0.133
sS'0.460'
p725
F0.141
sS'0.500'
p726
F0.141
sS'0.560'
p727
F0.136
sS'0.730'
p728
F0.115
sS'0.520'
p729
F0.14
sS'0.440'
p730
F0.141
sS'0.700'
p731
F0.119
sS'0.780'
p732
F0.107
sS'0.620'
p733
F0.129
sS'0.670'
p734
F0.122
sS'0.400'
p735
F0.136
sS'0.420'
p736
F0.139
sS'0.540'
p737
F0.138
ssS'85.0'
p738
(dp739
S'0.660'
p740
F0.11
sS'0.640'
p741
F0.111
sS'0.760'
p742
F0.101
sS'0.600'
p743
F0.113
sS'0.580'
p744
F0.113
sS'0.740'
p745
F0.103
sS'0.720'
p746
F0.105
sS'0.800'
p747
F0.097
sS'0.790'
p748
F0.098
sS'0.510'
p749
F0.11
sS'0.690'
p750
F0.108
sS'0.530'
p751
F0.111
sS'0.630'
p752
F0.112
sS'0.710'
p753
F0.106
sS'0.570'
p754
F0.113
sS'0.550'
p755
F0.113
sS'0.750'
p756
F0.102
sS'0.770'
p757
F0.1
sS'0.650'
p758
F0.111
sS'0.590'
p759
F0.113
sS'0.610'
p760
F0.113
sS'0.490'
p761
F0.107
sS'0.680'
p762
F0.108
sS'0.500'
p763
F0.109
sS'0.560'
p764
F0.113
sS'0.730'
p765
F0.104
sS'0.520'
p766
F0.111
sS'0.700'
p767
F0.107
sS'0.780'
p768
F0.099
sS'0.620'
p769
F0.112
sS'0.670'
p770
F0.109
sS'0.540'
p771
F0.112
sssS'45000'
p772
(dp773
S'55.0'
p774
(dp775
S'0.660'
p776
F0.205
sS'0.640'
p777
F0.201
sS'0.760'
p778
F0.207
sS'0.720'
p779
F0.208
sS'0.740'
p780
F0.208
sS'0.800'
p781
F0.205
sS'0.690'
p782
F0.208
sS'0.840'
p783
F0.195
sS'0.860'
p784
F0.176
sS'0.820'
p785
F0.202
sS'0.790'
p786
F0.206
sS'0.630'
p787
F0.199
sS'0.710'
p788
F0.208
sS'0.750'
p789
F0.207
sS'0.770'
p790
F0.206
sS'0.650'
p791
F0.203
sS'0.730'
p792
F0.208
sS'0.670'
p793
F0.206
sS'0.810'
p794
F0.204
sS'0.680'
p795
F0.207
sS'0.780'
p796
F0.206
sS'0.830'
p797
F0.199
sS'0.850'
p798
F0.187
sS'0.700'
p799
F0.208
ssS'70.0'
p800
(dp801
S'0.750'
p802
F0.177
sS'0.770'
p803
F0.178
sS'0.760'
p804
F0.178
sS'0.780'
p805
F0.178
sS'0.730'
p806
F0.175
sS'0.720'
p807
F0.172
sS'0.800'
p808
F0.177
sS'0.740'
p809
F0.176
sS'0.790'
p810
F0.178
sS'0.810'
p811
F0.176
sS'0.840'
p812
F0.161
sS'0.710'
p813
F0.169
sS'0.820'
p814
F0.174
sS'0.830'
p815
F0.169
ssS'75.0'
p816
(dp817
S'0.750'
p818
F0.163
sS'0.770'
p819
F0.165
sS'0.760'
p820
F0.164
sS'0.780'
p821
F0.165
sS'0.820'
p822
F0.16
sS'0.740'
p823
F0.161
sS'0.790'
p824
F0.165
sS'0.810'
p825
F0.163
sS'0.800'
p826
F0.165
ssS'65.0'
p827
(dp828
S'0.810'
p829
F0.186
sS'0.690'
p830
F0.181
sS'0.750'
p831
F0.188
sS'0.770'
p832
F0.189
sS'0.760'
p833
F0.188
sS'0.780'
p834
F0.189
sS'0.730'
p835
F0.187
sS'0.720'
p836
F0.186
sS'0.800'
p837
F0.188
sS'0.740'
p838
F0.188
sS'0.790'
p839
F0.189
sS'0.700'
p840
F0.183
sS'0.840'
p841
F0.177
sS'0.710'
p842
F0.184
sS'0.820'
p843
F0.185
sS'0.830'
p844
F0.181
sS'0.850'
p845
F0.168
ssS'60.0'
p846
(dp847
S'0.810'
p848
F0.196
sS'0.680'
p849
F0.194
sS'0.690'
p850
F0.196
sS'0.660'
p851
F0.189
sS'0.770'
p852
F0.198
sS'0.760'
p853
F0.199
sS'0.780'
p854
F0.198
sS'0.730'
p855
F0.198
sS'0.720'
p856
F0.198
sS'0.800'
p857
F0.197
sS'0.670'
p858
F0.192
sS'0.840'
p859
F0.186
sS'0.740'
p860
F0.198
sS'0.790'
p861
F0.198
sS'0.700'
p862
F0.197
sS'0.750'
p863
F0.199
sS'0.710'
p864
F0.198
sS'0.820'
p865
F0.195
sS'0.830'
p866
F0.191
sS'0.860'
p867
F0.164
sS'0.850'
p868
F0.177
ssS'50.0'
p869
(dp870
S'0.660'
p871
F0.217
sS'0.640'
p872
F0.215
sS'0.760'
p873
F0.216
sS'0.600'
p874
F0.207
sS'0.720'
p875
F0.217
sS'0.740'
p876
F0.216
sS'0.800'
p877
F0.213
sS'0.690'
p878
F0.218
sS'0.840'
p879
F0.203
sS'0.860'
p880
F0.186
sS'0.820'
p881
F0.21
sS'0.790'
p882
F0.214
sS'0.630'
p883
F0.214
sS'0.710'
p884
F0.217
sS'0.750'
p885
F0.216
sS'0.770'
p886
F0.215
sS'0.650'
p887
F0.217
sS'0.730'
p888
F0.216
sS'0.610'
p889
F0.209
sS'0.670'
p890
F0.218
sS'0.810'
p891
F0.212
sS'0.680'
p892
F0.218
sS'0.870'
p893
F0.174
sS'0.780'
p894
F0.215
sS'0.830'
p895
F0.207
sS'0.850'
p896
F0.196
sS'0.700'
p897
F0.218
sS'0.620'
p898
F0.212
sssS'30000'
p899
(dp900
S'55.0'
p901
(dp902
S'0.480'
p903
F0.163
sS'0.640'
p904
F0.161
sS'0.760'
p905
F0.142
sS'0.600'
p906
F0.166
sS'0.580'
p907
F0.167
sS'0.740'
p908
F0.145
sS'0.660'
p909
F0.158
sS'0.720'
p910
F0.149
sS'0.800'
p911
F0.134
sS'0.790'
p912
F0.136
sS'0.510'
p913
F0.167
sS'0.470'
p914
F0.162
sS'0.840'
p915
F0.121
sS'0.860'
p916
F0.112
sS'0.450'
p917
F0.158
sS'0.820'
p918
F0.128
sS'0.530'
p919
F0.168
sS'0.630'
p920
F0.162
sS'0.710'
p921
F0.15
sS'0.570'
p922
F0.168
sS'0.550'
p923
F0.168
sS'0.750'
p924
F0.143
sS'0.770'
p925
F0.14
sS'0.650'
p926
F0.159
sS'0.680'
p927
F0.155
sS'0.590'
p928
F0.167
sS'0.610'
p929
F0.165
sS'0.490'
p930
F0.165
sS'0.690'
p931
F0.153
sS'0.810'
p932
F0.131
sS'0.460'
p933
F0.16
sS'0.500'
p934
F0.166
sS'0.560'
p935
F0.168
sS'0.730'
p936
F0.147
sS'0.520'
p937
F0.167
sS'0.830'
p938
F0.125
sS'0.850'
p939
F0.117
sS'0.440'
p940
F0.156
sS'0.700'
p941
F0.152
sS'0.780'
p942
F0.138
sS'0.620'
p943
F0.163
sS'0.670'
p944
F0.156
sS'0.540'
p945
F0.168
ssS'80.0'
p946
(dp947
S'0.660'
p948
F0.137
sS'0.640'
p949
F0.138
sS'0.760'
p950
F0.129
sS'0.600'
p951
F0.139
sS'0.580'
p952
F0.137
sS'0.740'
p953
F0.131
sS'0.800'
p954
F0.123
sS'0.790'
p955
F0.125
sS'0.690'
p956
F0.135
sS'0.840'
p957
F0.114
sS'0.860'
p958
F0.105
sS'0.820'
p959
F0.119
sS'0.530'
p960
F0.131
sS'0.630'
p961
F0.139
sS'0.730'
p962
F0.131
sS'0.570'
p963
F0.136
sS'0.720'
p964
F0.132
sS'0.750'
p965
F0.13
sS'0.770'
p966
F0.127
sS'0.650'
p967
F0.138
sS'0.590'
p968
F0.138
sS'0.610'
p969
F0.139
sS'0.710'
p970
F0.133
sS'0.670'
p971
F0.137
sS'0.810'
p972
F0.121
sS'0.680'
p973
F0.136
sS'0.560'
p974
F0.135
sS'0.780'
p975
F0.126
sS'0.830'
p976
F0.117
sS'0.850'
p977
F0.11
sS'0.550'
p978
F0.134
sS'0.700'
p979
F0.134
sS'0.620'
p980
F0.139
sS'0.540'
p981
F0.132
ssS'70.0'
p982
(dp983
S'0.660'
p984
F0.146
sS'0.640'
p985
F0.148
sS'0.760'
p986
F0.133
sS'0.600'
p987
F0.15
sS'0.580'
p988
F0.15
sS'0.740'
p989
F0.136
sS'0.720'
p990
F0.138
sS'0.800'
p991
F0.127
sS'0.790'
p992
F0.129
sS'0.510'
p993
F0.143
sS'0.690'
p994
F0.142
sS'0.840'
p995
F0.117
sS'0.860'
p996
F0.108
sS'0.820'
p997
F0.123
sS'0.530'
p998
F0.146
sS'0.630'
p999
F0.148
sS'0.710'
p1000
F0.139
sS'0.570'
p1001
F0.15
sS'0.550'
p1002
F0.148
sS'0.750'
p1003
F0.135
sS'0.770'
p1004
F0.132
sS'0.650'
p1005
F0.147
sS'0.590'
p1006
F0.15
sS'0.610'
p1007
F0.15
sS'0.670'
p1008
F0.144
sS'0.810'
p1009
F0.125
sS'0.680'
p1010
F0.143
sS'0.500'
p1011
F0.141
sS'0.560'
p1012
F0.149
sS'0.730'
p1013
F0.137
sS'0.520'
p1014
F0.144
sS'0.830'
p1015
F0.12
sS'0.850'
p1016
F0.113
sS'0.700'
p1017
F0.141
sS'0.780'
p1018
F0.131
sS'0.620'
p1019
F0.149
sS'0.540'
p1020
F0.147
ssS'95.0'
p1021
(dp1022
S'0.660'
p1023
F0.125
sS'0.640'
p1024
F0.125
sS'0.760'
p1025
F0.12
sS'0.600'
p1026
F0.121
sS'0.580'
p1027
F0.118
sS'0.740'
p1028
F0.121
sS'0.800'
p1029
F0.116
sS'0.690'
p1030
F0.124
sS'0.840'
p1031
F0.108
sS'0.860'
p1032
F0.1
sS'0.820'
p1033
F0.113
sS'0.790'
p1034
F0.117
sS'0.630'
p1035
F0.124
sS'0.710'
p1036
F0.123
sS'0.720'
p1037
F0.123
sS'0.750'
p1038
F0.121
sS'0.770'
p1039
F0.119
sS'0.650'
p1040
F0.125
sS'0.590'
p1041
F0.12
sS'0.610'
p1042
F0.122
sS'0.670'
p1043
F0.125
sS'0.810'
p1044
F0.115
sS'0.680'
p1045
F0.125
sS'0.730'
p1046
F0.122
sS'0.780'
p1047
F0.118
sS'0.830'
p1048
F0.111
sS'0.850'
p1049
F0.105
sS'0.700'
p1050
F0.124
sS'0.620'
p1051
F0.123
ssS'90.0'
p1052
(dp1053
S'0.660'
p1054
F0.129
sS'0.640'
p1055
F0.129
sS'0.760'
p1056
F0.123
sS'0.600'
p1057
F0.127
sS'0.580'
p1058
F0.125
sS'0.740'
p1059
F0.124
sS'0.800'
p1060
F0.119
sS'0.690'
p1061
F0.128
sS'0.840'
p1062
F0.11
sS'0.860'
p1063
F0.101
sS'0.820'
p1064
F0.116
sS'0.790'
p1065
F0.12
sS'0.630'
p1066
F0.129
sS'0.710'
p1067
F0.126
sS'0.570'
p1068
F0.123
sS'0.720'
p1069
F0.126
sS'0.750'
p1070
F0.123
sS'0.770'
p1071
F0.122
sS'0.650'
p1072
F0.129
sS'0.590'
p1073
F0.126
sS'0.610'
p1074
F0.128
sS'0.670'
p1075
F0.129
sS'0.810'
p1076
F0.117
sS'0.680'
p1077
F0.128
sS'0.730'
p1078
F0.125
sS'0.780'
p1079
F0.121
sS'0.830'
p1080
F0.113
sS'0.850'
p1081
F0.106
sS'0.700'
p1082
F0.127
sS'0.620'
p1083
F0.129
ssS'75.0'
p1084
(dp1085
S'0.660'
p1086
F0.142
sS'0.640'
p1087
F0.143
sS'0.760'
p1088
F0.131
sS'0.600'
p1089
F0.144
sS'0.580'
p1090
F0.144
sS'0.740'
p1091
F0.133
sS'0.800'
p1092
F0.125
sS'0.790'
p1093
F0.127
sS'0.690'
p1094
F0.139
sS'0.840'
p1095
F0.116
sS'0.860'
p1096
F0.108
sS'0.820'
p1097
F0.121
sS'0.530'
p1098
F0.138
sS'0.630'
p1099
F0.144
sS'0.730'
p1100
F0.135
sS'0.570'
p1101
F0.143
sS'0.720'
p1102
F0.136
sS'0.750'
p1103
F0.132
sS'0.770'
p1104
F0.13
sS'0.650'
p1105
F0.143
sS'0.590'
p1106
F0.144
sS'0.610'
p1107
F0.144
sS'0.710'
p1108
F0.137
sS'0.670'
p1109
F0.141
sS'0.810'
p1110
F0.123
sS'0.680'
p1111
F0.14
sS'0.560'
p1112
F0.142
sS'0.520'
p1113
F0.137
sS'0.830'
p1114
F0.118
sS'0.850'
p1115
F0.112
sS'0.550'
p1116
F0.141
sS'0.700'
p1117
F0.138
sS'0.780'
p1118
F0.128
sS'0.620'
p1119
F0.144
sS'0.540'
p1120
F0.14
ssS'65.0'
p1121
(dp1122
S'0.480'
p1123
F0.145
sS'0.640'
p1124
F0.152
sS'0.760'
p1125
F0.137
sS'0.600'
p1126
F0.155
sS'0.580'
p1127
F0.156
sS'0.740'
p1128
F0.14
sS'0.660'
p1129
F0.15
sS'0.720'
p1130
F0.142
sS'0.800'
p1131
F0.13
sS'0.790'
p1132
F0.132
sS'0.510'
p1133
F0.151
sS'0.690'
p1134
F0.146
sS'0.840'
p1135
F0.119
sS'0.860'
p1136
F0.11
sS'0.820'
p1137
F0.125
sS'0.530'
p1138
F0.153
sS'0.630'
p1139
F0.153
sS'0.710'
p1140
F0.144
sS'0.570'
p1141
F0.156
sS'0.550'
p1142
F0.155
sS'0.750'
p1143
F0.138
sS'0.770'
p1144
F0.135
sS'0.650'
p1145
F0.151
sS'0.590'
p1146
F0.155
sS'0.610'
p1147
F0.154
sS'0.490'
p1148
F0.147
sS'0.810'
p1149
F0.127
sS'0.680'
p1150
F0.147
sS'0.500'
p1151
F0.149
sS'0.560'
p1152
F0.155
sS'0.730'
p1153
F0.141
sS'0.520'
p1154
F0.152
sS'0.830'
p1155
F0.122
sS'0.850'
p1156
F0.115
sS'0.700'
p1157
F0.145
sS'0.780'
p1158
F0.133
sS'0.620'
p1159
F0.154
sS'0.670'
p1160
F0.149
sS'0.540'
p1161
F0.154
ssS'60.0'
p1162
(dp1163
S'0.480'
p1164
F0.154
sS'0.640'
p1165
F0.156
sS'0.760'
p1166
F0.139
sS'0.600'
p1167
F0.16
sS'0.580'
p1168
F0.161
sS'0.740'
p1169
F0.143
sS'0.660'
p1170
F0.154
sS'0.720'
p1171
F0.145
sS'0.800'
p1172
F0.131
sS'0.790'
p1173
F0.134
sS'0.510'
p1174
F0.158
sS'0.470'
p1175
F0.152
sS'0.840'
p1176
F0.119
sS'0.860'
p1177
F0.11
sS'0.820'
p1178
F0.126
sS'0.530'
p1179
F0.16
sS'0.630'
p1180
F0.157
sS'0.710'
p1181
F0.147
sS'0.570'
p1182
F0.162
sS'0.550'
p1183
F0.162
sS'0.750'
p1184
F0.141
sS'0.770'
p1185
F0.138
sS'0.650'
p1186
F0.155
sS'0.680'
p1187
F0.151
sS'0.590'
p1188
F0.161
sS'0.610'
p1189
F0.16
sS'0.490'
p1190
F0.156
sS'0.690'
p1191
F0.15
sS'0.810'
p1192
F0.129
sS'0.460'
p1193
F0.15
sS'0.500'
p1194
F0.157
sS'0.560'
p1195
F0.162
sS'0.730'
p1196
F0.144
sS'0.520'
p1197
F0.16
sS'0.830'
p1198
F0.123
sS'0.850'
p1199
F0.115
sS'0.700'
p1200
F0.148
sS'0.780'
p1201
F0.136
sS'0.620'
p1202
F0.159
sS'0.670'
p1203
F0.152
sS'0.540'
p1204
F0.161
ssS'50.0'
p1205
(dp1206
S'0.480'
p1207
F0.173
sS'0.640'
p1208
F0.165
sS'0.760'
p1209
F0.145
sS'0.600'
p1210
F0.17
sS'0.580'
p1211
F0.172
sS'0.740'
p1212
F0.148
sS'0.660'
p1213
F0.162
sS'0.720'
p1214
F0.152
sS'0.800'
p1215
F0.135
sS'0.790'
p1216
F0.138
sS'0.510'
p1217
F0.175
sS'0.470'
p1218
F0.172
sS'0.840'
p1219
F0.122
sS'0.860'
p1220
F0.113
sS'0.450'
p1221
F0.169
sS'0.820'
p1222
F0.129
sS'0.530'
p1223
F0.175
sS'0.630'
p1224
F0.166
sS'0.710'
p1225
F0.153
sS'0.570'
p1226
F0.173
sS'0.550'
p1227
F0.175
sS'0.430'
p1228
F0.165
sS'0.750'
p1229
F0.146
sS'0.770'
p1230
F0.143
sS'0.650'
p1231
F0.163
sS'0.680'
p1232
F0.158
sS'0.590'
p1233
F0.171
sS'0.610'
p1234
F0.169
sS'0.490'
p1235
F0.174
sS'0.690'
p1236
F0.157
sS'0.810'
p1237
F0.133
sS'0.460'
p1238
F0.17
sS'0.500'
p1239
F0.175
sS'0.560'
p1240
F0.174
sS'0.730'
p1241
F0.15
sS'0.520'
p1242
F0.175
sS'0.830'
p1243
F0.126
sS'0.850'
p1244
F0.118
sS'0.440'
p1245
F0.167
sS'0.700'
p1246
F0.155
sS'0.780'
p1247
F0.14
sS'0.620'
p1248
F0.167
sS'0.670'
p1249
F0.16
sS'0.420'
p1250
F0.163
sS'0.540'
p1251
F0.175
ssS'85.0'
p1252
(dp1253
S'0.660'
p1254
F0.133
sS'0.640'
p1255
F0.134
sS'0.760'
p1256
F0.126
sS'0.600'
p1257
F0.133
sS'0.580'
p1258
F0.131
sS'0.740'
p1259
F0.127
sS'0.800'
p1260
F0.121
sS'0.690'
p1261
F0.131
sS'0.840'
p1262
F0.112
sS'0.860'
p1263
F0.104
sS'0.820'
p1264
F0.118
sS'0.790'
p1265
F0.122
sS'0.630'
p1266
F0.134
sS'0.730'
p1267
F0.128
sS'0.570'
p1268
F0.13
sS'0.720'
p1269
F0.129
sS'0.750'
p1270
F0.127
sS'0.770'
p1271
F0.125
sS'0.650'
p1272
F0.134
sS'0.590'
p1273
F0.132
sS'0.610'
p1274
F0.134
sS'0.710'
p1275
F0.13
sS'0.670'
p1276
F0.133
sS'0.810'
p1277
F0.12
sS'0.680'
p1278
F0.132
sS'0.560'
p1279
F0.129
sS'0.780'
p1280
F0.124
sS'0.830'
p1281
F0.115
sS'0.850'
p1282
F0.108
sS'0.550'
p1283
F0.127
sS'0.700'
p1284
F0.131
sS'0.620'
p1285
F0.134
sssS'35000'
p1286
(dp1287
S'55.0'
p1288
(dp1289
S'0.660'
p1290
F0.168
sS'0.640'
p1291
F0.169
sS'0.760'
p1292
F0.157
sS'0.600'
p1293
F0.171
sS'0.580'
p1294
F0.171
sS'0.740'
p1295
F0.159
sS'0.880'
p1296
F0.119
sS'0.720'
p1297
F0.161
sS'0.800'
p1298
F0.151
sS'0.790'
p1299
F0.152
sS'0.510'
p1300
F0.163
sS'0.690'
p1301
F0.165
sS'0.840'
p1302
F0.14
sS'0.860'
p1303
F0.131
sS'0.820'
p1304
F0.146
sS'0.530'
p1305
F0.167
sS'0.630'
p1306
F0.17
sS'0.710'
p1307
F0.162
sS'0.570'
p1308
F0.17
sS'0.550'
p1309
F0.169
sS'0.750'
p1310
F0.158
sS'0.770'
p1311
F0.155
sS'0.650'
p1312
F0.169
sS'0.590'
p1313
F0.171
sS'0.610'
p1314
F0.171
sS'0.670'
p1315
F0.167
sS'0.810'
p1316
F0.149
sS'0.680'
p1317
F0.166
sS'0.500'
p1318
F0.162
sS'0.560'
p1319
F0.17
sS'0.870'
p1320
F0.125
sS'0.730'
p1321
F0.16
sS'0.520'
p1322
F0.165
sS'0.830'
p1323
F0.143
sS'0.850'
p1324
F0.136
sS'0.700'
p1325
F0.163
sS'0.780'
p1326
F0.154
sS'0.620'
p1327
F0.17
sS'0.540'
p1328
F0.168
ssS'80.0'
p1329
(dp1330
S'0.660'
p1331
F0.143
sS'0.640'
p1332
F0.141
sS'0.760'
p1333
F0.139
sS'0.600'
p1334
F0.136
sS'0.720'
p1335
F0.141
sS'0.740'
p1336
F0.14
sS'0.800'
p1337
F0.136
sS'0.690'
p1338
F0.143
sS'0.840'
p1339
F0.129
sS'0.860'
p1340
F0.118
sS'0.820'
p1341
F0.134
sS'0.790'
p1342
F0.137
sS'0.630'
p1343
F0.14
sS'0.710'
p1344
F0.142
sS'0.750'
p1345
F0.14
sS'0.770'
p1346
F0.138
sS'0.650'
p1347
F0.142
sS'0.730'
p1348
F0.141
sS'0.610'
p1349
F0.137
sS'0.670'
p1350
F0.143
sS'0.810'
p1351
F0.136
sS'0.680'
p1352
F0.143
sS'0.870'
p1353
F0.11
sS'0.780'
p1354
F0.138
sS'0.830'
p1355
F0.132
sS'0.850'
p1356
F0.124
sS'0.700'
p1357
F0.142
sS'0.620'
p1358
F0.139
ssS'70.0'
p1359
(dp1360
S'0.660'
p1361
F0.153
sS'0.640'
p1362
F0.153
sS'0.760'
p1363
F0.146
sS'0.600'
p1364
F0.151
sS'0.580'
p1365
F0.149
sS'0.740'
p1366
F0.147
sS'0.880'
p1367
F0.107
sS'0.800'
p1368
F0.143
sS'0.690'
p1369
F0.151
sS'0.840'
p1370
F0.134
sS'0.860'
p1371
F0.124
sS'0.820'
p1372
F0.14
sS'0.790'
p1373
F0.144
sS'0.630'
p1374
F0.153
sS'0.730'
p1375
F0.148
sS'0.570'
p1376
F0.147
sS'0.720'
p1377
F0.149
sS'0.750'
p1378
F0.147
sS'0.770'
p1379
F0.146
sS'0.650'
p1380
F0.153
sS'0.590'
p1381
F0.15
sS'0.610'
p1382
F0.152
sS'0.710'
p1383
F0.15
sS'0.670'
p1384
F0.153
sS'0.810'
p1385
F0.141
sS'0.680'
p1386
F0.152
sS'0.560'
p1387
F0.146
sS'0.870'
p1388
F0.117
sS'0.780'
p1389
F0.145
sS'0.830'
p1390
F0.137
sS'0.850'
p1391
F0.13
sS'0.700'
p1392
F0.151
sS'0.620'
p1393
F0.153
ssS'95.0'
p1394
(dp1395
S'0.660'
p1396
F0.124
sS'0.760'
p1397
F0.127
sS'0.720'
p1398
F0.129
sS'0.740'
p1399
F0.128
sS'0.800'
p1400
F0.126
sS'0.690'
p1401
F0.127
sS'0.840'
p1402
F0.119
sS'0.860'
p1403
F0.105
sS'0.820'
p1404
F0.125
sS'0.790'
p1405
F0.127
sS'0.710'
p1406
F0.129
sS'0.750'
p1407
F0.128
sS'0.770'
p1408
F0.127
sS'0.650'
p1409
F0.122
sS'0.730'
p1410
F0.129
sS'0.670'
p1411
F0.125
sS'0.810'
p1412
F0.126
sS'0.680'
p1413
F0.127
sS'0.780'
p1414
F0.127
sS'0.830'
p1415
F0.123
sS'0.850'
p1416
F0.114
sS'0.700'
p1417
F0.128
ssS'90.0'
p1418
(dp1419
S'0.660'
p1420
F0.13
sS'0.640'
p1421
F0.128
sS'0.760'
p1422
F0.131
sS'0.720'
p1423
F0.133
sS'0.740'
p1424
F0.132
sS'0.800'
p1425
F0.13
sS'0.690'
p1426
F0.133
sS'0.840'
p1427
F0.123
sS'0.860'
p1428
F0.111
sS'0.820'
p1429
F0.128
sS'0.790'
p1430
F0.13
sS'0.710'
p1431
F0.133
sS'0.750'
p1432
F0.132
sS'0.770'
p1433
F0.131
sS'0.650'
p1434
F0.129
sS'0.730'
p1435
F0.133
sS'0.670'
p1436
F0.132
sS'0.810'
p1437
F0.129
sS'0.680'
p1438
F0.132
sS'0.780'
p1439
F0.131
sS'0.830'
p1440
F0.126
sS'0.850'
p1441
F0.118
sS'0.700'
p1442
F0.133
ssS'75.0'
p1443
(dp1444
S'0.660'
p1445
F0.148
sS'0.640'
p1446
F0.148
sS'0.760'
p1447
F0.142
sS'0.600'
p1448
F0.144
sS'0.580'
p1449
F0.141
sS'0.740'
p1450
F0.144
sS'0.800'
p1451
F0.14
sS'0.690'
p1452
F0.147
sS'0.840'
p1453
F0.132
sS'0.860'
p1454
F0.121
sS'0.820'
p1455
F0.137
sS'0.790'
p1456
F0.141
sS'0.630'
p1457
F0.147
sS'0.710'
p1458
F0.146
sS'0.720'
p1459
F0.145
sS'0.750'
p1460
F0.143
sS'0.770'
p1461
F0.142
sS'0.650'
p1462
F0.148
sS'0.590'
p1463
F0.142
sS'0.610'
p1464
F0.145
sS'0.670'
p1465
F0.148
sS'0.810'
p1466
F0.139
sS'0.680'
p1467
F0.147
sS'0.870'
p1468
F0.113
sS'0.730'
p1469
F0.144
sS'0.780'
p1470
F0.141
sS'0.830'
p1471
F0.135
sS'0.850'
p1472
F0.127
sS'0.700'
p1473
F0.146
sS'0.620'
p1474
F0.146
ssS'65.0'
p1475
(dp1476
S'0.660'
p1477
F0.158
sS'0.640'
p1478
F0.159
sS'0.760'
p1479
F0.15
sS'0.600'
p1480
F0.158
sS'0.580'
p1481
F0.157
sS'0.740'
p1482
F0.151
sS'0.880'
p1483
F0.115
sS'0.800'
p1484
F0.145
sS'0.690'
p1485
F0.156
sS'0.840'
p1486
F0.136
sS'0.860'
p1487
F0.127
sS'0.820'
p1488
F0.142
sS'0.790'
p1489
F0.147
sS'0.630'
p1490
F0.159
sS'0.730'
p1491
F0.152
sS'0.570'
p1492
F0.155
sS'0.720'
p1493
F0.153
sS'0.750'
p1494
F0.15
sS'0.770'
p1495
F0.149
sS'0.650'
p1496
F0.158
sS'0.590'
p1497
F0.157
sS'0.610'
p1498
F0.159
sS'0.710'
p1499
F0.154
sS'0.670'
p1500
F0.157
sS'0.810'
p1501
F0.144
sS'0.680'
p1502
F0.157
sS'0.560'
p1503
F0.154
sS'0.870'
p1504
F0.121
sS'0.780'
p1505
F0.148
sS'0.830'
p1506
F0.139
sS'0.850'
p1507
F0.132
sS'0.550'
p1508
F0.152
sS'0.700'
p1509
F0.155
sS'0.620'
p1510
F0.159
sS'0.540'
p1511
F0.15
ssS'60.0'
p1512
(dp1513
S'0.660'
p1514
F0.163
sS'0.640'
p1515
F0.164
sS'0.760'
p1516
F0.153
sS'0.600'
p1517
F0.165
sS'0.580'
p1518
F0.164
sS'0.740'
p1519
F0.155
sS'0.880'
p1520
F0.117
sS'0.800'
p1521
F0.148
sS'0.790'
p1522
F0.149
sS'0.690'
p1523
F0.16
sS'0.840'
p1524
F0.138
sS'0.860'
p1525
F0.129
sS'0.820'
p1526
F0.144
sS'0.530'
p1527
F0.158
sS'0.630'
p1528
F0.165
sS'0.730'
p1529
F0.156
sS'0.570'
p1530
F0.163
sS'0.720'
p1531
F0.157
sS'0.750'
p1532
F0.154
sS'0.770'
p1533
F0.152
sS'0.650'
p1534
F0.164
sS'0.590'
p1535
F0.164
sS'0.610'
p1536
F0.165
sS'0.710'
p1537
F0.158
sS'0.670'
p1538
F0.162
sS'0.810'
p1539
F0.146
sS'0.680'
p1540
F0.161
sS'0.560'
p1541
F0.162
sS'0.870'
p1542
F0.123
sS'0.520'
p1543
F0.156
sS'0.830'
p1544
F0.141
sS'0.850'
p1545
F0.134
sS'0.550'
p1546
F0.16
sS'0.700'
p1547
F0.159
sS'0.780'
p1548
F0.151
sS'0.620'
p1549
F0.165
sS'0.540'
p1550
F0.159
ssS'50.0'
p1551
(dp1552
S'0.480'
p1553
F0.168
sS'0.640'
p1554
F0.174
sS'0.760'
p1555
F0.16
sS'0.600'
p1556
F0.177
sS'0.580'
p1557
F0.178
sS'0.740'
p1558
F0.163
sS'0.880'
p1559
F0.12
sS'0.660'
p1560
F0.172
sS'0.720'
p1561
F0.165
sS'0.800'
p1562
F0.153
sS'0.790'
p1563
F0.155
sS'0.510'
p1564
F0.173
sS'0.690'
p1565
F0.169
sS'0.840'
p1566
F0.142
sS'0.860'
p1567
F0.133
sS'0.820'
p1568
F0.148
sS'0.530'
p1569
F0.176
sS'0.630'
p1570
F0.175
sS'0.710'
p1571
F0.166
sS'0.570'
p1572
F0.178
sS'0.550'
p1573
F0.177
sS'0.750'
p1574
F0.161
sS'0.770'
p1575
F0.159
sS'0.650'
p1576
F0.173
sS'0.590'
p1577
F0.178
sS'0.610'
p1578
F0.177
sS'0.490'
p1579
F0.17
sS'0.810'
p1580
F0.151
sS'0.680'
p1581
F0.17
sS'0.500'
p1582
F0.172
sS'0.560'
p1583
F0.178
sS'0.870'
p1584
F0.128
sS'0.730'
p1585
F0.164
sS'0.520'
p1586
F0.175
sS'0.830'
p1587
F0.145
sS'0.850'
p1588
F0.138
sS'0.700'
p1589
F0.168
sS'0.780'
p1590
F0.157
sS'0.620'
p1591
F0.176
sS'0.670'
p1592
F0.171
sS'0.540'
p1593
F0.177
ssS'85.0'
p1594
(dp1595
S'0.660'
p1596
F0.137
sS'0.640'
p1597
F0.135
sS'0.760'
p1598
F0.136
sS'0.720'
p1599
F0.137
sS'0.740'
p1600
F0.136
sS'0.800'
p1601
F0.134
sS'0.690'
p1602
F0.138
sS'0.840'
p1603
F0.125
sS'0.860'
p1604
F0.115
sS'0.820'
p1605
F0.131
sS'0.790'
p1606
F0.134
sS'0.630'
p1607
F0.134
sS'0.710'
p1608
F0.137
sS'0.750'
p1609
F0.136
sS'0.770'
p1610
F0.135
sS'0.650'
p1611
F0.136
sS'0.730'
p1612
F0.137
sS'0.670'
p1613
F0.137
sS'0.810'
p1614
F0.133
sS'0.680'
p1615
F0.138
sS'0.870'
p1616
F0.109
sS'0.780'
p1617
F0.135
sS'0.830'
p1618
F0.129
sS'0.850'
p1619
F0.121
sS'0.700'
p1620
F0.138
sS'0.620'
p1621
F0.132
sssS'41000'
p1622
(dp1623
S'55.0'
p1624
(dp1625
S'0.660'
p1626
F0.194
sS'0.640'
p1627
F0.194
sS'0.760'
p1628
F0.189
sS'0.600'
p1629
F0.189
sS'0.580'
p1630
F0.184
sS'0.740'
p1631
F0.19
sS'0.880'
p1632
F0.142
sS'0.800'
p1633
F0.185
sS'0.690'
p1634
F0.194
sS'0.840'
p1635
F0.175
sS'0.860'
p1636
F0.161
sS'0.820'
p1637
F0.181
sS'0.790'
p1638
F0.186
sS'0.630'
p1639
F0.193
sS'0.710'
p1640
F0.192
sS'0.720'
p1641
F0.192
sS'0.750'
p1642
F0.189
sS'0.770'
p1643
F0.188
sS'0.650'
p1644
F0.194
sS'0.590'
p1645
F0.187
sS'0.610'
p1646
F0.19
sS'0.670'
p1647
F0.194
sS'0.810'
p1648
F0.183
sS'0.680'
p1649
F0.194
sS'0.870'
p1650
F0.153
sS'0.730'
p1651
F0.191
sS'0.780'
p1652
F0.187
sS'0.830'
p1653
F0.178
sS'0.850'
p1654
F0.169
sS'0.700'
p1655
F0.193
sS'0.620'
p1656
F0.192
ssS'80.0'
p1657
(dp1658
S'0.810'
p1659
F0.154
sS'0.690'
p1660
F0.149
sS'0.750'
p1661
F0.156
sS'0.770'
p1662
F0.156
sS'0.760'
p1663
F0.156
sS'0.780'
p1664
F0.156
sS'0.730'
p1665
F0.155
sS'0.720'
p1666
F0.154
sS'0.800'
p1667
F0.155
sS'0.740'
p1668
F0.155
sS'0.790'
p1669
F0.155
sS'0.700'
p1670
F0.151
sS'0.840'
p1671
F0.145
sS'0.710'
p1672
F0.152
sS'0.820'
p1673
F0.152
sS'0.830'
p1674
F0.15
sS'0.850'
p1675
F0.137
ssS'70.0'
p1676
(dp1677
S'0.660'
p1678
F0.165
sS'0.760'
p1679
F0.169
sS'0.720'
p1680
F0.171
sS'0.740'
p1681
F0.17
sS'0.800'
p1682
F0.168
sS'0.690'
p1683
F0.17
sS'0.840'
p1684
F0.158
sS'0.860'
p1685
F0.142
sS'0.820'
p1686
F0.166
sS'0.790'
p1687
F0.168
sS'0.710'
p1688
F0.171
sS'0.750'
p1689
F0.169
sS'0.770'
p1690
F0.169
sS'0.650'
p1691
F0.163
sS'0.730'
p1692
F0.17
sS'0.670'
p1693
F0.167
sS'0.810'
p1694
F0.167
sS'0.680'
p1695
F0.169
sS'0.780'
p1696
F0.169
sS'0.830'
p1697
F0.163
sS'0.850'
p1698
F0.151
sS'0.700'
p1699
F0.171
ssS'95.0'
p1700
(dp1701
S'0.750'
p1702
F0.126
sS'0.770'
p1703
F0.129
sS'0.760'
p1704
F0.127
sS'0.780'
p1705
F0.13
sS'0.790'
p1706
F0.13
sS'0.810'
p1707
F0.127
sS'0.800'
p1708
F0.129
ssS'90.0'
p1709
(dp1710
S'0.750'
p1711
F0.138
sS'0.770'
p1712
F0.139
sS'0.760'
p1713
F0.139
sS'0.780'
p1714
F0.14
sS'0.730'
p1715
F0.135
sS'0.830'
p1716
F0.132
sS'0.740'
p1717
F0.137
sS'0.790'
p1718
F0.14
sS'0.810'
p1719
F0.138
sS'0.800'
p1720
F0.139
sS'0.820'
p1721
F0.136
ssS'75.0'
p1722
(dp1723
S'0.810'
p1724
F0.161
sS'0.680'
p1725
F0.158
sS'0.690'
p1726
F0.16
sS'0.750'
p1727
F0.163
sS'0.770'
p1728
F0.163
sS'0.760'
p1729
F0.163
sS'0.780'
p1730
F0.162
sS'0.730'
p1731
F0.163
sS'0.720'
p1732
F0.163
sS'0.800'
p1733
F0.162
sS'0.670'
p1734
F0.156
sS'0.740'
p1735
F0.163
sS'0.790'
p1736
F0.162
sS'0.700'
p1737
F0.161
sS'0.840'
p1738
F0.153
sS'0.710'
p1739
F0.162
sS'0.820'
p1740
F0.159
sS'0.830'
p1741
F0.156
sS'0.860'
p1742
F0.134
sS'0.850'
p1743
F0.146
ssS'65.0'
p1744
(dp1745
S'0.660'
p1746
F0.176
sS'0.640'
p1747
F0.173
sS'0.760'
p1748
F0.176
sS'0.720'
p1749
F0.178
sS'0.740'
p1750
F0.177
sS'0.800'
p1751
F0.174
sS'0.690'
p1752
F0.178
sS'0.840'
p1753
F0.165
sS'0.860'
p1754
F0.147
sS'0.820'
p1755
F0.171
sS'0.790'
p1756
F0.174
sS'0.630'
p1757
F0.171
sS'0.710'
p1758
F0.178
sS'0.750'
p1759
F0.176
sS'0.770'
p1760
F0.175
sS'0.650'
p1761
F0.175
sS'0.730'
p1762
F0.177
sS'0.670'
p1763
F0.177
sS'0.810'
p1764
F0.173
sS'0.680'
p1765
F0.178
sS'0.870'
p1766
F0.138
sS'0.780'
p1767
F0.175
sS'0.830'
p1768
F0.168
sS'0.850'
p1769
F0.157
sS'0.700'
p1770
F0.179
sS'0.620'
p1771
F0.169
ssS'60.0'
p1772
(dp1773
S'0.660'
p1774
F0.186
sS'0.640'
p1775
F0.184
sS'0.760'
p1776
F0.182
sS'0.600'
p1777
F0.176
sS'0.720'
p1778
F0.185
sS'0.740'
p1779
F0.183
sS'0.800'
p1780
F0.179
sS'0.690'
p1781
F0.186
sS'0.840'
p1782
F0.169
sS'0.860'
p1783
F0.156
sS'0.820'
p1784
F0.176
sS'0.790'
p1785
F0.18
sS'0.630'
p1786
F0.182
sS'0.710'
p1787
F0.186
sS'0.750'
p1788
F0.183
sS'0.770'
p1789
F0.182
sS'0.650'
p1790
F0.185
sS'0.730'
p1791
F0.184
sS'0.610'
p1792
F0.178
sS'0.670'
p1793
F0.186
sS'0.810'
p1794
F0.178
sS'0.680'
p1795
F0.187
sS'0.870'
p1796
F0.147
sS'0.780'
p1797
F0.181
sS'0.830'
p1798
F0.173
sS'0.850'
p1799
F0.163
sS'0.700'
p1800
F0.186
sS'0.620'
p1801
F0.18
ssS'50.0'
p1802
(dp1803
S'0.660'
p1804
F0.202
sS'0.640'
p1805
F0.203
sS'0.760'
p1806
F0.195
sS'0.600'
p1807
F0.2
sS'0.580'
p1808
F0.197
sS'0.740'
p1809
F0.196
sS'0.880'
p1810
F0.147
sS'0.800'
p1811
F0.19
sS'0.690'
p1812
F0.201
sS'0.840'
p1813
F0.178
sS'0.860'
p1814
F0.167
sS'0.820'
p1815
F0.185
sS'0.790'
p1816
F0.191
sS'0.630'
p1817
F0.203
sS'0.730'
p1818
F0.197
sS'0.570'
p1819
F0.196
sS'0.720'
p1820
F0.198
sS'0.750'
p1821
F0.196
sS'0.770'
p1822
F0.194
sS'0.650'
p1823
F0.203
sS'0.590'
p1824
F0.199
sS'0.610'
p1825
F0.201
sS'0.710'
p1826
F0.199
sS'0.670'
p1827
F0.202
sS'0.810'
p1828
F0.188
sS'0.680'
p1829
F0.201
sS'0.560'
p1830
F0.194
sS'0.870'
p1831
F0.157
sS'0.780'
p1832
F0.193
sS'0.830'
p1833
F0.182
sS'0.850'
p1834
F0.174
sS'0.550'
p1835
F0.192
sS'0.700'
p1836
F0.2
sS'0.620'
p1837
F0.202
ssS'85.0'
p1838
(dp1839
S'0.750'
p1840
F0.148
sS'0.770'
p1841
F0.148
sS'0.760'
p1842
F0.148
sS'0.780'
p1843
F0.148
sS'0.730'
p1844
F0.145
sS'0.720'
p1845
F0.144
sS'0.800'
p1846
F0.148
sS'0.740'
p1847
F0.147
sS'0.790'
p1848
F0.148
sS'0.810'
p1849
F0.147
sS'0.840'
p1850
F0.135
sS'0.710'
p1851
F0.142
sS'0.820'
p1852
F0.145
sS'0.830'
p1853
F0.141
sssS'15000'
p1854
(dp1855
S'55.0'
p1856
(dp1857
S'0.480'
p1858
F0.105
sS'0.640'
p1859
F0.088
sS'0.600'
p1860
F0.092
sS'0.580'
p1861
F0.095
sS'0.330'
p1862
F0.102
sS'0.390'
p1863
F0.108
sS'0.510'
p1864
F0.102
sS'0.470'
p1865
F0.106
sS'0.410'
p1866
F0.108
sS'0.450'
p1867
F0.107
sS'0.530'
p1868
F0.1
sS'0.630'
p1869
F0.089
sS'0.360'
p1870
F0.106
sS'0.340'
p1871
F0.104
sS'0.570'
p1872
F0.096
sS'0.550'
p1873
F0.098
sS'0.430'
p1874
F0.108
sS'0.650'
p1875
F0.087
sS'0.590'
p1876
F0.094
sS'0.610'
p1877
F0.091
sS'0.490'
p1878
F0.104
sS'0.320'
p1879
F0.101
sS'0.660'
p1880
F0.086
sS'0.380'
p1881
F0.108
sS'0.460'
p1882
F0.107
sS'0.500'
p1883
F0.103
sS'0.560'
p1884
F0.097
sS'0.520'
p1885
F0.101
sS'0.440'
p1886
F0.108
sS'0.370'
p1887
F0.107
sS'0.620'
p1888
F0.09
sS'0.400'
p1889
F0.108
sS'0.420'
p1890
F0.108
sS'0.540'
p1891
F0.099
sS'0.350'
p1892
F0.105
ssS'80.0'
p1893
(dp1894
S'0.480'
p1895
F0.094
sS'0.640'
p1896
F0.084
sS'0.600'
p1897
F0.088
sS'0.580'
p1898
F0.089
sS'0.390'
p1899
F0.09
sS'0.510'
p1900
F0.094
sS'0.470'
p1901
F0.094
sS'0.410'
p1902
F0.092
sS'0.450'
p1903
F0.094
sS'0.530'
p1904
F0.093
sS'0.630'
p1905
F0.085
sS'0.570'
p1906
F0.09
sS'0.550'
p1907
F0.091
sS'0.430'
p1908
F0.093
sS'0.650'
p1909
F0.083
sS'0.590'
p1910
F0.088
sS'0.610'
p1911
F0.087
sS'0.490'
p1912
F0.094
sS'0.660'
p1913
F0.083
sS'0.460'
p1914
F0.094
sS'0.500'
p1915
F0.094
sS'0.560'
p1916
F0.091
sS'0.520'
p1917
F0.093
sS'0.440'
p1918
F0.094
sS'0.620'
p1919
F0.086
sS'0.400'
p1920
F0.091
sS'0.420'
p1921
F0.093
sS'0.540'
p1922
F0.092
ssS'70.0'
p1923
(dp1924
S'0.480'
p1925
F0.099
sS'0.640'
p1926
F0.086
sS'0.600'
p1927
F0.09
sS'0.580'
p1928
F0.092
sS'0.390'
p1929
F0.097
sS'0.510'
p1930
F0.097
sS'0.470'
p1931
F0.099
sS'0.410'
p1932
F0.099
sS'0.450'
p1933
F0.1
sS'0.530'
p1934
F0.096
sS'0.630'
p1935
F0.087
sS'0.360'
p1936
F0.093
sS'0.570'
p1937
F0.093
sS'0.550'
p1938
F0.094
sS'0.430'
p1939
F0.099
sS'0.650'
p1940
F0.085
sS'0.590'
p1941
F0.091
sS'0.610'
p1942
F0.089
sS'0.490'
p1943
F0.098
sS'0.660'
p1944
F0.084
sS'0.380'
p1945
F0.096
sS'0.460'
p1946
F0.099
sS'0.500'
p1947
F0.098
sS'0.560'
p1948
F0.093
sS'0.520'
p1949
F0.097
sS'0.440'
p1950
F0.1
sS'0.370'
p1951
F0.095
sS'0.620'
p1952
F0.088
sS'0.400'
p1953
F0.098
sS'0.420'
p1954
F0.099
sS'0.540'
p1955
F0.095
ssS'95.0'
p1956
(dp1957
S'0.480'
p1958
F0.088
sS'0.640'
p1959
F0.082
sS'0.600'
p1960
F0.084
sS'0.580'
p1961
F0.085
sS'0.660'
p1962
F0.08
sS'0.510'
p1963
F0.088
sS'0.470'
p1964
F0.087
sS'0.450'
p1965
F0.086
sS'0.530'
p1966
F0.087
sS'0.630'
p1967
F0.082
sS'0.570'
p1968
F0.086
sS'0.550'
p1969
F0.087
sS'0.430'
p1970
F0.084
sS'0.650'
p1971
F0.081
sS'0.590'
p1972
F0.085
sS'0.610'
p1973
F0.084
sS'0.490'
p1974
F0.088
sS'0.460'
p1975
F0.087
sS'0.500'
p1976
F0.088
sS'0.560'
p1977
F0.086
sS'0.520'
p1978
F0.088
sS'0.440'
p1979
F0.085
sS'0.620'
p1980
F0.083
sS'0.420'
p1981
F0.083
sS'0.540'
p1982
F0.087
ssS'90.0'
p1983
(dp1984
S'0.480'
p1985
F0.09
sS'0.640'
p1986
F0.082
sS'0.600'
p1987
F0.085
sS'0.580'
p1988
F0.087
sS'0.660'
p1989
F0.081
sS'0.510'
p1990
F0.09
sS'0.470'
p1991
F0.09
sS'0.410'
p1992
F0.085
sS'0.450'
p1993
F0.089
sS'0.530'
p1994
F0.089
sS'0.630'
p1995
F0.083
sS'0.570'
p1996
F0.087
sS'0.550'
p1997
F0.088
sS'0.430'
p1998
F0.087
sS'0.650'
p1999
F0.082
sS'0.590'
p2000
F0.086
sS'0.610'
p2001
F0.085
sS'0.490'
p2002
F0.09
sS'0.460'
p2003
F0.089
sS'0.500'
p2004
F0.09
sS'0.560'
p2005
F0.088
sS'0.520'
p2006
F0.089
sS'0.440'
p2007
F0.088
sS'0.620'
p2008
F0.084
sS'0.420'
p2009
F0.086
sS'0.540'
p2010
F0.089
ssS'75.0'
p2011
(dp2012
S'0.480'
p2013
F0.097
sS'0.640'
p2014
F0.085
sS'0.600'
p2015
F0.089
sS'0.580'
p2016
F0.09
sS'0.390'
p2017
F0.093
sS'0.510'
p2018
F0.095
sS'0.470'
p2019
F0.097
sS'0.410'
p2020
F0.095
sS'0.450'
p2021
F0.097
sS'0.530'
p2022
F0.094
sS'0.630'
p2023
F0.086
sS'0.570'
p2024
F0.091
sS'0.550'
p2025
F0.093
sS'0.430'
p2026
F0.096
sS'0.650'
p2027
F0.084
sS'0.590'
p2028
F0.09
sS'0.610'
p2029
F0.088
sS'0.490'
p2030
F0.096
sS'0.660'
p2031
F0.083
sS'0.380'
p2032
F0.092
sS'0.460'
p2033
F0.097
sS'0.500'
p2034
F0.096
sS'0.560'
p2035
F0.092
sS'0.520'
p2036
F0.095
sS'0.440'
p2037
F0.097
sS'0.620'
p2038
F0.087
sS'0.400'
p2039
F0.095
sS'0.420'
p2040
F0.096
sS'0.540'
p2041
F0.094
ssS'65.0'
p2042
(dp2043
S'0.480'
p2044
F0.101
sS'0.640'
p2045
F0.087
sS'0.600'
p2046
F0.091
sS'0.580'
p2047
F0.093
sS'0.390'
p2048
F0.101
sS'0.510'
p2049
F0.099
sS'0.470'
p2050
F0.102
sS'0.410'
p2051
F0.102
sS'0.450'
p2052
F0.102
sS'0.530'
p2053
F0.097
sS'0.630'
p2054
F0.088
sS'0.360'
p2055
F0.098
sS'0.570'
p2056
F0.094
sS'0.550'
p2057
F0.096
sS'0.430'
p2058
F0.102
sS'0.650'
p2059
F0.086
sS'0.590'
p2060
F0.092
sS'0.610'
p2061
F0.09
sS'0.490'
p2062
F0.1
sS'0.660'
p2063
F0.085
sS'0.380'
p2064
F0.1
sS'0.460'
p2065
F0.102
sS'0.500'
p2066
F0.1
sS'0.560'
p2067
F0.095
sS'0.520'
p2068
F0.098
sS'0.440'
p2069
F0.102
sS'0.370'
p2070
F0.099
sS'0.620'
p2071
F0.089
sS'0.400'
p2072
F0.101
sS'0.420'
p2073
F0.102
sS'0.540'
p2074
F0.097
sS'0.350'
p2075
F0.096
ssS'60.0'
p2076
(dp2077
S'0.480'
p2078
F0.103
sS'0.640'
p2079
F0.087
sS'0.600'
p2080
F0.092
sS'0.580'
p2081
F0.094
sS'0.390'
p2082
F0.105
sS'0.510'
p2083
F0.101
sS'0.470'
p2084
F0.104
sS'0.410'
p2085
F0.105
sS'0.450'
p2086
F0.105
sS'0.530'
p2087
F0.099
sS'0.630'
p2088
F0.088
sS'0.360'
p2089
F0.102
sS'0.340'
p2090
F0.099
sS'0.570'
p2091
F0.095
sS'0.550'
p2092
F0.097
sS'0.430'
p2093
F0.105
sS'0.650'
p2094
F0.086
sS'0.590'
p2095
F0.093
sS'0.610'
p2096
F0.091
sS'0.490'
p2097
F0.102
sS'0.660'
p2098
F0.085
sS'0.380'
p2099
F0.104
sS'0.460'
p2100
F0.104
sS'0.500'
p2101
F0.102
sS'0.560'
p2102
F0.096
sS'0.520'
p2103
F0.1
sS'0.440'
p2104
F0.105
sS'0.370'
p2105
F0.103
sS'0.620'
p2106
F0.089
sS'0.400'
p2107
F0.105
sS'0.420'
p2108
F0.105
sS'0.540'
p2109
F0.098
sS'0.350'
p2110
F0.101
ssS'50.0'
p2111
(dp2112
S'0.480'
p2113
F0.107
sS'0.640'
p2114
F0.089
sS'0.600'
p2115
F0.093
sS'0.580'
p2116
F0.096
sS'0.310'
p2117
F0.104
sS'0.330'
p2118
F0.108
sS'0.390'
p2119
F0.112
sS'0.510'
p2120
F0.104
sS'0.470'
p2121
F0.108
sS'0.410'
p2122
F0.111
sS'0.450'
p2123
F0.109
sS'0.530'
p2124
F0.102
sS'0.630'
p2125
F0.09
sS'0.360'
p2126
F0.111
sS'0.340'
p2127
F0.109
sS'0.570'
p2128
F0.097
sS'0.550'
p2129
F0.099
sS'0.430'
p2130
F0.111
sS'0.650'
p2131
F0.087
sS'0.590'
p2132
F0.094
sS'0.610'
p2133
F0.092
sS'0.490'
p2134
F0.106
sS'0.320'
p2135
F0.106
sS'0.660'
p2136
F0.086
sS'0.380'
p2137
F0.111
sS'0.460'
p2138
F0.109
sS'0.500'
p2139
F0.105
sS'0.560'
p2140
F0.098
sS'0.520'
p2141
F0.103
sS'0.440'
p2142
F0.11
sS'0.370'
p2143
F0.111
sS'0.620'
p2144
F0.091
sS'0.400'
p2145
F0.112
sS'0.420'
p2146
F0.111
sS'0.540'
p2147
F0.1
sS'0.350'
p2148
F0.11
ssS'85.0'
p2149
(dp2150
S'0.480'
p2151
F0.092
sS'0.640'
p2152
F0.084
sS'0.600'
p2153
F0.087
sS'0.580'
p2154
F0.088
sS'0.660'
p2155
F0.082
sS'0.510'
p2156
F0.092
sS'0.470'
p2157
F0.092
sS'0.410'
p2158
F0.088
sS'0.450'
p2159
F0.092
sS'0.530'
p2160
F0.091
sS'0.630'
p2161
F0.084
sS'0.570'
p2162
F0.089
sS'0.550'
p2163
F0.09
sS'0.430'
p2164
F0.09
sS'0.650'
p2165
F0.083
sS'0.590'
p2166
F0.087
sS'0.610'
p2167
F0.086
sS'0.490'
p2168
F0.092
sS'0.460'
p2169
F0.092
sS'0.500'
p2170
F0.092
sS'0.560'
p2171
F0.089
sS'0.520'
p2172
F0.091
sS'0.440'
p2173
F0.091
sS'0.620'
p2174
F0.085
sS'0.400'
p2175
F0.087
sS'0.420'
p2176
F0.09
sS'0.540'
p2177
F0.09
sssS'37000'
p2178
(dp2179
S'55.0'
p2180
(dp2181
S'0.660'
p2182
F0.177
sS'0.640'
p2183
F0.178
sS'0.760'
p2184
F0.167
sS'0.600'
p2185
F0.179
sS'0.580'
p2186
F0.178
sS'0.740'
p2187
F0.169
sS'0.880'
p2188
F0.126
sS'0.800'
p2189
F0.162
sS'0.790'
p2190
F0.164
sS'0.690'
p2191
F0.175
sS'0.840'
p2192
F0.151
sS'0.860'
p2193
F0.141
sS'0.820'
p2194
F0.158
sS'0.530'
p2195
F0.17
sS'0.630'
p2196
F0.179
sS'0.730'
p2197
F0.17
sS'0.570'
p2198
F0.177
sS'0.720'
p2199
F0.171
sS'0.750'
p2200
F0.168
sS'0.770'
p2201
F0.166
sS'0.650'
p2202
F0.178
sS'0.590'
p2203
F0.178
sS'0.610'
p2204
F0.179
sS'0.710'
p2205
F0.173
sS'0.670'
p2206
F0.176
sS'0.810'
p2207
F0.16
sS'0.680'
p2208
F0.175
sS'0.560'
p2209
F0.175
sS'0.870'
p2210
F0.134
sS'0.520'
p2211
F0.168
sS'0.830'
p2212
F0.155
sS'0.850'
p2213
F0.147
sS'0.550'
p2214
F0.174
sS'0.700'
p2215
F0.174
sS'0.780'
p2216
F0.165
sS'0.620'
p2217
F0.179
sS'0.540'
p2218
F0.172
ssS'80.0'
p2219
(dp2220
S'0.660'
p2221
F0.146
sS'0.640'
p2222
F0.143
sS'0.760'
p2223
F0.146
sS'0.720'
p2224
F0.148
sS'0.740'
p2225
F0.147
sS'0.800'
p2226
F0.144
sS'0.690'
p2227
F0.148
sS'0.840'
p2228
F0.136
sS'0.860'
p2229
F0.123
sS'0.820'
p2230
F0.142
sS'0.790'
p2231
F0.145
sS'0.630'
p2232
F0.141
sS'0.710'
p2233
F0.148
sS'0.750'
p2234
F0.146
sS'0.770'
p2235
F0.146
sS'0.650'
p2236
F0.145
sS'0.730'
p2237
F0.147
sS'0.670'
p2238
F0.147
sS'0.810'
p2239
F0.144
sS'0.680'
p2240
F0.148
sS'0.870'
p2241
F0.112
sS'0.780'
p2242
F0.145
sS'0.830'
p2243
F0.14
sS'0.850'
p2244
F0.131
sS'0.700'
p2245
F0.148
ssS'70.0'
p2246
(dp2247
S'0.660'
p2248
F0.159
sS'0.640'
p2249
F0.159
sS'0.760'
p2250
F0.155
sS'0.600'
p2251
F0.154
sS'0.720'
p2252
F0.157
sS'0.740'
p2253
F0.156
sS'0.880'
p2254
F0.113
sS'0.800'
p2255
F0.152
sS'0.690'
p2256
F0.159
sS'0.840'
p2257
F0.143
sS'0.860'
p2258
F0.132
sS'0.820'
p2259
F0.149
sS'0.790'
p2260
F0.153
sS'0.630'
p2261
F0.158
sS'0.710'
p2262
F0.158
sS'0.750'
p2263
F0.155
sS'0.770'
p2264
F0.154
sS'0.650'
p2265
F0.159
sS'0.590'
p2266
F0.152
sS'0.610'
p2267
F0.155
sS'0.670'
p2268
F0.159
sS'0.810'
p2269
F0.151
sS'0.680'
p2270
F0.159
sS'0.870'
p2271
F0.124
sS'0.730'
p2272
F0.156
sS'0.780'
p2273
F0.153
sS'0.830'
p2274
F0.147
sS'0.850'
p2275
F0.138
sS'0.700'
p2276
F0.158
sS'0.620'
p2277
F0.157
ssS'95.0'
p2278
(dp2279
S'0.810'
p2280
F0.131
sS'0.690'
p2281
F0.127
sS'0.750'
p2282
F0.132
sS'0.770'
p2283
F0.132
sS'0.760'
p2284
F0.132
sS'0.780'
p2285
F0.132
sS'0.730'
p2286
F0.132
sS'0.720'
p2287
F0.131
sS'0.800'
p2288
F0.132
sS'0.740'
p2289
F0.132
sS'0.790'
p2290
F0.132
sS'0.700'
p2291
F0.128
sS'0.840'
p2292
F0.123
sS'0.710'
p2293
F0.13
sS'0.820'
p2294
F0.13
sS'0.830'
p2295
F0.127
sS'0.850'
p2296
F0.115
ssS'90.0'
p2297
(dp2298
S'0.810'
p2299
F0.135
sS'0.680'
p2300
F0.133
sS'0.690'
p2301
F0.135
sS'0.750'
p2302
F0.137
sS'0.770'
p2303
F0.136
sS'0.760'
p2304
F0.137
sS'0.780'
p2305
F0.136
sS'0.730'
p2306
F0.137
sS'0.720'
p2307
F0.137
sS'0.800'
p2308
F0.136
sS'0.670'
p2309
F0.131
sS'0.740'
p2310
F0.137
sS'0.790'
p2311
F0.136
sS'0.700'
p2312
F0.136
sS'0.840'
p2313
F0.129
sS'0.710'
p2314
F0.137
sS'0.820'
p2315
F0.134
sS'0.830'
p2316
F0.132
sS'0.850'
p2317
F0.121
ssS'75.0'
p2318
(dp2319
S'0.660'
p2320
F0.153
sS'0.640'
p2321
F0.151
sS'0.760'
p2322
F0.15
sS'0.720'
p2323
F0.152
sS'0.740'
p2324
F0.151
sS'0.800'
p2325
F0.148
sS'0.690'
p2326
F0.154
sS'0.840'
p2327
F0.14
sS'0.860'
p2328
F0.127
sS'0.820'
p2329
F0.146
sS'0.790'
p2330
F0.149
sS'0.630'
p2331
F0.15
sS'0.710'
p2332
F0.153
sS'0.750'
p2333
F0.151
sS'0.770'
p2334
F0.15
sS'0.650'
p2335
F0.152
sS'0.730'
p2336
F0.152
sS'0.610'
p2337
F0.147
sS'0.670'
p2338
F0.154
sS'0.810'
p2339
F0.147
sS'0.680'
p2340
F0.154
sS'0.870'
p2341
F0.118
sS'0.780'
p2342
F0.149
sS'0.830'
p2343
F0.143
sS'0.850'
p2344
F0.135
sS'0.700'
p2345
F0.154
sS'0.620'
p2346
F0.148
ssS'65.0'
p2347
(dp2348
S'0.660'
p2349
F0.165
sS'0.640'
p2350
F0.165
sS'0.760'
p2351
F0.159
sS'0.600'
p2352
F0.163
sS'0.580'
p2353
F0.16
sS'0.740'
p2354
F0.16
sS'0.880'
p2355
F0.118
sS'0.800'
p2356
F0.156
sS'0.690'
p2357
F0.164
sS'0.840'
p2358
F0.147
sS'0.860'
p2359
F0.136
sS'0.820'
p2360
F0.152
sS'0.790'
p2361
F0.157
sS'0.630'
p2362
F0.165
sS'0.710'
p2363
F0.163
sS'0.570'
p2364
F0.158
sS'0.720'
p2365
F0.162
sS'0.750'
p2366
F0.16
sS'0.770'
p2367
F0.159
sS'0.650'
p2368
F0.165
sS'0.590'
p2369
F0.161
sS'0.610'
p2370
F0.164
sS'0.670'
p2371
F0.165
sS'0.810'
p2372
F0.154
sS'0.680'
p2373
F0.165
sS'0.870'
p2374
F0.128
sS'0.730'
p2375
F0.161
sS'0.780'
p2376
F0.158
sS'0.830'
p2377
F0.15
sS'0.850'
p2378
F0.142
sS'0.700'
p2379
F0.163
sS'0.620'
p2380
F0.165
ssS'60.0'
p2381
(dp2382
S'0.660'
p2383
F0.171
sS'0.640'
p2384
F0.172
sS'0.760'
p2385
F0.163
sS'0.600'
p2386
F0.171
sS'0.580'
p2387
F0.169
sS'0.740'
p2388
F0.165
sS'0.880'
p2389
F0.124
sS'0.800'
p2390
F0.159
sS'0.690'
p2391
F0.169
sS'0.840'
p2392
F0.149
sS'0.860'
p2393
F0.139
sS'0.820'
p2394
F0.155
sS'0.790'
p2395
F0.16
sS'0.630'
p2396
F0.172
sS'0.730'
p2397
F0.166
sS'0.570'
p2398
F0.167
sS'0.720'
p2399
F0.167
sS'0.750'
p2400
F0.164
sS'0.770'
p2401
F0.162
sS'0.650'
p2402
F0.172
sS'0.590'
p2403
F0.17
sS'0.610'
p2404
F0.172
sS'0.710'
p2405
F0.168
sS'0.670'
p2406
F0.171
sS'0.810'
p2407
F0.157
sS'0.680'
p2408
F0.17
sS'0.560'
p2409
F0.166
sS'0.870'
p2410
F0.132
sS'0.780'
p2411
F0.161
sS'0.830'
p2412
F0.152
sS'0.850'
p2413
F0.145
sS'0.550'
p2414
F0.164
sS'0.700'
p2415
F0.168
sS'0.620'
p2416
F0.172
ssS'50.0'
p2417
(dp2418
S'0.660'
p2419
F0.183
sS'0.640'
p2420
F0.184
sS'0.760'
p2421
F0.171
sS'0.600'
p2422
F0.186
sS'0.580'
p2423
F0.186
sS'0.740'
p2424
F0.174
sS'0.880'
p2425
F0.13
sS'0.720'
p2426
F0.176
sS'0.800'
p2427
F0.165
sS'0.790'
p2428
F0.167
sS'0.510'
p2429
F0.178
sS'0.690'
p2430
F0.18
sS'0.840'
p2431
F0.154
sS'0.860'
p2432
F0.144
sS'0.820'
p2433
F0.161
sS'0.530'
p2434
F0.181
sS'0.630'
p2435
F0.185
sS'0.710'
p2436
F0.177
sS'0.570'
p2437
F0.186
sS'0.550'
p2438
F0.184
sS'0.750'
p2439
F0.173
sS'0.770'
p2440
F0.17
sS'0.650'
p2441
F0.184
sS'0.590'
p2442
F0.186
sS'0.610'
p2443
F0.186
sS'0.670'
p2444
F0.182
sS'0.810'
p2445
F0.163
sS'0.680'
p2446
F0.181
sS'0.500'
p2447
F0.176
sS'0.560'
p2448
F0.185
sS'0.870'
p2449
F0.137
sS'0.730'
p2450
F0.175
sS'0.520'
p2451
F0.179
sS'0.830'
p2452
F0.157
sS'0.850'
p2453
F0.149
sS'0.700'
p2454
F0.179
sS'0.780'
p2455
F0.169
sS'0.620'
p2456
F0.186
sS'0.540'
p2457
F0.182
ssS'85.0'
p2458
(dp2459
S'0.660'
p2460
F0.138
sS'0.760'
p2461
F0.141
sS'0.720'
p2462
F0.142
sS'0.740'
p2463
F0.142
sS'0.800'
p2464
F0.14
sS'0.690'
p2465
F0.142
sS'0.840'
p2466
F0.133
sS'0.860'
p2467
F0.117
sS'0.820'
p2468
F0.138
sS'0.790'
p2469
F0.14
sS'0.710'
p2470
F0.142
sS'0.750'
p2471
F0.141
sS'0.770'
p2472
F0.141
sS'0.650'
p2473
F0.136
sS'0.730'
p2474
F0.142
sS'0.670'
p2475
F0.139
sS'0.810'
p2476
F0.139
sS'0.680'
p2477
F0.141
sS'0.780'
p2478
F0.141
sS'0.830'
p2479
F0.136
sS'0.850'
p2480
F0.127
sS'0.700'
p2481
F0.142
sssS'0'
p2482
(dp2483
S'55.0'
p2484
(dp2485
S'0.310'
p2486
F0.074
sS'0.330'
p2487
F0.074
sS'0.390'
p2488
F0.072
sS'0.290'
p2489
F0.073
sS'0.410'
p2490
F0.071
sS'0.450'
p2491
F0.068
sS'0.240'
p2492
F0.067
sS'0.360'
p2493
F0.073
sS'0.300'
p2494
F0.074
sS'0.340'
p2495
F0.074
sS'0.430'
p2496
F0.069
sS'0.260'
p2497
F0.07
sS'0.320'
p2498
F0.074
sS'0.280'
p2499
F0.072
sS'0.380'
p2500
F0.073
sS'0.440'
p2501
F0.069
sS'0.370'
p2502
F0.073
sS'0.250'
p2503
F0.069
sS'0.270'
p2504
F0.071
sS'0.400'
p2505
F0.071
sS'0.420'
p2506
F0.07
sS'0.350'
p2507
F0.074
ssS'80.0'
p2508
(dp2509
S'0.410'
p2510
F0.067
sS'0.450'
p2511
F0.065
sS'0.310'
p2512
F0.065
sS'0.330'
p2513
F0.066
sS'0.320'
p2514
F0.065
sS'0.440'
p2515
F0.065
sS'0.370'
p2516
F0.067
sS'0.360'
p2517
F0.067
sS'0.390'
p2518
F0.067
sS'0.300'
p2519
F0.063
sS'0.290'
p2520
F0.062
sS'0.340'
p2521
F0.067
sS'0.400'
p2522
F0.067
sS'0.380'
p2523
F0.067
sS'0.420'
p2524
F0.066
sS'0.430'
p2525
F0.066
sS'0.350'
p2526
F0.067
ssS'70.0'
p2527
(dp2528
S'0.410'
p2529
F0.068
sS'0.450'
p2530
F0.066
sS'0.310'
p2531
F0.068
sS'0.330'
p2532
F0.069
sS'0.320'
p2533
F0.069
sS'0.440'
p2534
F0.067
sS'0.370'
p2535
F0.07
sS'0.360'
p2536
F0.07
sS'0.390'
p2537
F0.069
sS'0.300'
p2538
F0.068
sS'0.280'
p2539
F0.065
sS'0.290'
p2540
F0.067
sS'0.340'
p2541
F0.07
sS'0.400'
p2542
F0.069
sS'0.380'
p2543
F0.069
sS'0.420'
p2544
F0.068
sS'0.430'
p2545
F0.067
sS'0.350'
p2546
F0.07
ssS'95.0'
p2547
(dp2548
S'0.410'
p2549
F0.064
sS'0.450'
p2550
F0.063
sS'0.330'
p2551
F0.061
sS'0.320'
p2552
F0.06
sS'0.440'
p2553
F0.063
sS'0.370'
p2554
F0.063
sS'0.360'
p2555
F0.063
sS'0.390'
p2556
F0.064
sS'0.340'
p2557
F0.062
sS'0.400'
p2558
F0.064
sS'0.380'
p2559
F0.064
sS'0.420'
p2560
F0.064
sS'0.430'
p2561
F0.063
sS'0.350'
p2562
F0.063
ssS'90.0'
p2563
(dp2564
S'0.410'
p2565
F0.065
sS'0.450'
p2566
F0.063
sS'0.310'
p2567
F0.061
sS'0.330'
p2568
F0.063
sS'0.320'
p2569
F0.062
sS'0.440'
p2570
F0.064
sS'0.370'
p2571
F0.065
sS'0.360'
p2572
F0.064
sS'0.390'
p2573
F0.065
sS'0.340'
p2574
F0.063
sS'0.400'
p2575
F0.065
sS'0.380'
p2576
F0.065
sS'0.420'
p2577
F0.064
sS'0.430'
p2578
F0.064
sS'0.350'
p2579
F0.064
ssS'75.0'
p2580
(dp2581
S'0.410'
p2582
F0.067
sS'0.450'
p2583
F0.065
sS'0.310'
p2584
F0.067
sS'0.330'
p2585
F0.068
sS'0.320'
p2586
F0.067
sS'0.440'
p2587
F0.066
sS'0.370'
p2588
F0.069
sS'0.360'
p2589
F0.069
sS'0.390'
p2590
F0.068
sS'0.300'
p2591
F0.066
sS'0.280'
p2592
F0.063
sS'0.290'
p2593
F0.064
sS'0.340'
p2594
F0.068
sS'0.400'
p2595
F0.068
sS'0.380'
p2596
F0.068
sS'0.420'
p2597
F0.067
sS'0.430'
p2598
F0.067
sS'0.350'
p2599
F0.068
ssS'65.0'
p2600
(dp2601
S'0.400'
p2602
F0.07
sS'0.410'
p2603
F0.069
sS'0.370'
p2604
F0.071
sS'0.450'
p2605
F0.067
sS'0.310'
p2606
F0.07
sS'0.330'
p2607
F0.071
sS'0.320'
p2608
F0.071
sS'0.440'
p2609
F0.067
sS'0.340'
p2610
F0.071
sS'0.360'
p2611
F0.071
sS'0.390'
p2612
F0.07
sS'0.300'
p2613
F0.07
sS'0.280'
p2614
F0.068
sS'0.290'
p2615
F0.069
sS'0.270'
p2616
F0.067
sS'0.350'
p2617
F0.071
sS'0.380'
p2618
F0.071
sS'0.420'
p2619
F0.069
sS'0.430'
p2620
F0.068
sS'0.260'
p2621
F0.065
ssS'60.0'
p2622
(dp2623
S'0.400'
p2624
F0.071
sS'0.360'
p2625
F0.072
sS'0.410'
p2626
F0.07
sS'0.370'
p2627
F0.072
sS'0.450'
p2628
F0.067
sS'0.310'
p2629
F0.072
sS'0.330'
p2630
F0.073
sS'0.320'
p2631
F0.072
sS'0.440'
p2632
F0.068
sS'0.340'
p2633
F0.073
sS'0.250'
p2634
F0.066
sS'0.390'
p2635
F0.071
sS'0.300'
p2636
F0.072
sS'0.280'
p2637
F0.07
sS'0.290'
p2638
F0.071
sS'0.270'
p2639
F0.069
sS'0.350'
p2640
F0.073
sS'0.380'
p2641
F0.072
sS'0.420'
p2642
F0.069
sS'0.430'
p2643
F0.069
sS'0.260'
p2644
F0.068
ssS'50.0'
p2645
(dp2646
S'0.310'
p2647
F0.076
sS'0.330'
p2648
F0.075
sS'0.390'
p2649
F0.073
sS'0.290'
p2650
F0.075
sS'0.410'
p2651
F0.071
sS'0.450'
p2652
F0.068
sS'0.240'
p2653
F0.07
sS'0.360'
p2654
F0.075
sS'0.300'
p2655
F0.075
sS'0.340'
p2656
F0.075
sS'0.430'
p2657
F0.07
sS'0.260'
p2658
F0.073
sS'0.320'
p2659
F0.076
sS'0.280'
p2660
F0.074
sS'0.380'
p2661
F0.073
sS'0.440'
p2662
F0.069
sS'0.370'
p2663
F0.074
sS'0.250'
p2664
F0.071
sS'0.230'
p2665
F0.068
sS'0.270'
p2666
F0.074
sS'0.400'
p2667
F0.072
sS'0.420'
p2668
F0.071
sS'0.350'
p2669
F0.075
ssS'85.0'
p2670
(dp2671
S'0.410'
p2672
F0.066
sS'0.450'
p2673
F0.064
sS'0.310'
p2674
F0.063
sS'0.330'
p2675
F0.064
sS'0.320'
p2676
F0.064
sS'0.440'
p2677
F0.065
sS'0.370'
p2678
F0.066
sS'0.360'
p2679
F0.066
sS'0.390'
p2680
F0.066
sS'0.300'
p2681
F0.061
sS'0.340'
p2682
F0.065
sS'0.400'
p2683
F0.066
sS'0.380'
p2684
F0.066
sS'0.420'
p2685
F0.065
sS'0.430'
p2686
F0.065
sS'0.350'
p2687
F0.066
sssS'49000'
p2688
(dp2689
S'58.0'
p2690
(dp2691
S'0.750'
p2692
F0.209
sS'0.770'
p2693
F0.21
sS'0.760'
p2694
F0.21
sS'0.780'
p2695
F0.211
sS'0.730'
p2696
F0.206
sS'0.720'
p2697
F0.204
sS'0.800'
p2698
F0.21
sS'0.740'
p2699
F0.208
sS'0.790'
p2700
F0.211
sS'0.810'
p2701
F0.209
sS'0.710'
p2702
F0.201
sS'0.820'
p2703
F0.207
sS'0.830'
p2704
F0.201
ssS'56.0'
p2705
(dp2706
S'0.810'
p2707
F0.215
sS'0.750'
p2708
F0.216
sS'0.770'
p2709
F0.217
sS'0.760'
p2710
F0.217
sS'0.780'
p2711
F0.217
sS'0.730'
p2712
F0.214
sS'0.720'
p2713
F0.212
sS'0.800'
p2714
F0.217
sS'0.740'
p2715
F0.215
sS'0.790'
p2716
F0.217
sS'0.700'
p2717
F0.207
sS'0.840'
p2718
F0.201
sS'0.710'
p2719
F0.209
sS'0.820'
p2720
F0.213
sS'0.830'
p2721
F0.208
ssS'62.0'
p2722
(dp2723
S'0.750'
p2724
F0.193
sS'0.770'
p2725
F0.196
sS'0.760'
p2726
F0.195
sS'0.780'
p2727
F0.197
sS'0.820'
p2728
F0.19
sS'0.740'
p2729
F0.191
sS'0.790'
p2730
F0.197
sS'0.810'
p2731
F0.194
sS'0.800'
p2732
F0.196
ssS'52.0'
p2733
(dp2734
S'0.810'
p2735
F0.226
sS'0.680'
p2736
F0.219
sS'0.690'
p2737
F0.221
sS'0.750'
p2738
F0.228
sS'0.770'
p2739
F0.228
sS'0.760'
p2740
F0.228
sS'0.780'
p2741
F0.228
sS'0.730'
p2742
F0.227
sS'0.720'
p2743
F0.226
sS'0.800'
p2744
F0.227
sS'0.740'
p2745
F0.228
sS'0.790'
p2746
F0.228
sS'0.700'
p2747
F0.223
sS'0.840'
p2748
F0.215
sS'0.710'
p2749
F0.225
sS'0.820'
p2750
F0.224
sS'0.830'
p2751
F0.221
sS'0.850'
p2752
F0.207
ssS'64.0'
p2753
(dp2754
S'0.750'
p2755
F0.184
sS'0.770'
p2756
F0.187
sS'0.760'
p2757
F0.186
sS'0.780'
p2758
F0.188
sS'0.790'
p2759
F0.188
sS'0.800'
p2760
F0.188
ssS'54.0'
p2761
(dp2762
S'0.810'
p2763
F0.221
sS'0.690'
p2764
F0.213
sS'0.750'
p2765
F0.222
sS'0.770'
p2766
F0.223
sS'0.760'
p2767
F0.222
sS'0.780'
p2768
F0.223
sS'0.730'
p2769
F0.221
sS'0.720'
p2770
F0.219
sS'0.800'
p2771
F0.222
sS'0.740'
p2772
F0.221
sS'0.790'
p2773
F0.223
sS'0.700'
p2774
F0.216
sS'0.840'
p2775
F0.209
sS'0.710'
p2776
F0.218
sS'0.820'
p2777
F0.219
sS'0.830'
p2778
F0.215
sS'0.850'
p2779
F0.199
ssS'60.0'
p2780
(dp2781
S'0.750'
p2782
F0.202
sS'0.770'
p2783
F0.204
sS'0.760'
p2784
F0.203
sS'0.780'
p2785
F0.204
sS'0.730'
p2786
F0.198
sS'0.830'
p2787
F0.194
sS'0.740'
p2788
F0.2
sS'0.790'
p2789
F0.204
sS'0.810'
p2790
F0.202
sS'0.800'
p2791
F0.203
sS'0.820'
p2792
F0.199
ssS'50.0'
p2793
(dp2794
S'0.810'
p2795
F0.232
sS'0.680'
p2796
F0.226
sS'0.690'
p2797
F0.228
sS'0.660'
p2798
F0.22
sS'0.770'
p2799
F0.234
sS'0.760'
p2800
F0.233
sS'0.780'
p2801
F0.234
sS'0.730'
p2802
F0.233
sS'0.720'
p2803
F0.232
sS'0.800'
p2804
F0.233
sS'0.670'
p2805
F0.224
sS'0.840'
p2806
F0.22
sS'0.740'
p2807
F0.233
sS'0.790'
p2808
F0.234
sS'0.700'
p2809
F0.23
sS'0.750'
p2810
F0.233
sS'0.710'
p2811
F0.231
sS'0.820'
p2812
F0.23
sS'0.830'
p2813
F0.226
sS'0.850'
p2814
F0.211
sssS'39000'
p2815
(dp2816
S'55.0'
p2817
(dp2818
S'0.660'
p2819
F0.186
sS'0.640'
p2820
F0.186
sS'0.760'
p2821
F0.178
sS'0.600'
p2822
F0.184
sS'0.580'
p2823
F0.182
sS'0.740'
p2824
F0.18
sS'0.880'
p2825
F0.135
sS'0.800'
p2826
F0.173
sS'0.690'
p2827
F0.184
sS'0.840'
p2828
F0.162
sS'0.860'
p2829
F0.151
sS'0.820'
p2830
F0.169
sS'0.790'
p2831
F0.175
sS'0.630'
p2832
F0.186
sS'0.730'
p2833
F0.181
sS'0.570'
p2834
F0.18
sS'0.720'
p2835
F0.182
sS'0.750'
p2836
F0.179
sS'0.770'
p2837
F0.177
sS'0.650'
p2838
F0.186
sS'0.590'
p2839
F0.183
sS'0.610'
p2840
F0.185
sS'0.710'
p2841
F0.182
sS'0.670'
p2842
F0.185
sS'0.810'
p2843
F0.172
sS'0.680'
p2844
F0.185
sS'0.560'
p2845
F0.179
sS'0.870'
p2846
F0.143
sS'0.780'
p2847
F0.176
sS'0.830'
p2848
F0.166
sS'0.850'
p2849
F0.158
sS'0.550'
p2850
F0.177
sS'0.700'
p2851
F0.183
sS'0.620'
p2852
F0.186
ssS'80.0'
p2853
(dp2854
S'0.810'
p2855
F0.15
sS'0.680'
p2856
F0.149
sS'0.690'
p2857
F0.15
sS'0.660'
p2858
F0.145
sS'0.770'
p2859
F0.151
sS'0.760'
p2860
F0.151
sS'0.780'
p2861
F0.151
sS'0.730'
p2862
F0.152
sS'0.720'
p2863
F0.152
sS'0.800'
p2864
F0.15
sS'0.670'
p2865
F0.147
sS'0.840'
p2866
F0.142
sS'0.740'
p2867
F0.152
sS'0.790'
p2868
F0.151
sS'0.700'
p2869
F0.151
sS'0.750'
p2870
F0.152
sS'0.710'
p2871
F0.152
sS'0.820'
p2872
F0.148
sS'0.830'
p2873
F0.146
sS'0.860'
p2874
F0.126
sS'0.850'
p2875
F0.136
ssS'70.0'
p2876
(dp2877
S'0.660'
p2878
F0.164
sS'0.640'
p2879
F0.161
sS'0.760'
p2880
F0.162
sS'0.720'
p2881
F0.164
sS'0.740'
p2882
F0.163
sS'0.800'
p2883
F0.16
sS'0.690'
p2884
F0.165
sS'0.840'
p2885
F0.152
sS'0.860'
p2886
F0.138
sS'0.820'
p2887
F0.158
sS'0.790'
p2888
F0.161
sS'0.630'
p2889
F0.159
sS'0.710'
p2890
F0.165
sS'0.750'
p2891
F0.163
sS'0.770'
p2892
F0.162
sS'0.650'
p2893
F0.163
sS'0.730'
p2894
F0.164
sS'0.670'
p2895
F0.165
sS'0.810'
p2896
F0.16
sS'0.680'
p2897
F0.165
sS'0.870'
p2898
F0.128
sS'0.780'
p2899
F0.161
sS'0.830'
p2900
F0.155
sS'0.850'
p2901
F0.146
sS'0.700'
p2902
F0.165
sS'0.620'
p2903
F0.158
ssS'95.0'
p2904
(dp2905
S'0.750'
p2906
F0.133
sS'0.770'
p2907
F0.133
sS'0.760'
p2908
F0.133
sS'0.780'
p2909
F0.133
sS'0.730'
p2910
F0.13
sS'0.720'
p2911
F0.129
sS'0.740'
p2912
F0.132
sS'0.790'
p2913
F0.134
sS'0.810'
p2914
F0.133
sS'0.840'
p2915
F0.121
sS'0.800'
p2916
F0.134
sS'0.820'
p2917
F0.13
sS'0.830'
p2918
F0.127
ssS'90.0'
p2919
(dp2920
S'0.810'
p2921
F0.138
sS'0.750'
p2922
F0.14
sS'0.770'
p2923
F0.14
sS'0.760'
p2924
F0.14
sS'0.780'
p2925
F0.14
sS'0.730'
p2926
F0.138
sS'0.720'
p2927
F0.137
sS'0.800'
p2928
F0.139
sS'0.740'
p2929
F0.139
sS'0.790'
p2930
F0.14
sS'0.700'
p2931
F0.134
sS'0.840'
p2932
F0.129
sS'0.710'
p2933
F0.136
sS'0.820'
p2934
F0.137
sS'0.830'
p2935
F0.134
sS'0.850'
p2936
F0.122
ssS'75.0'
p2937
(dp2938
S'0.660'
p2939
F0.155
sS'0.640'
p2940
F0.152
sS'0.760'
p2941
F0.157
sS'0.720'
p2942
F0.159
sS'0.740'
p2943
F0.158
sS'0.800'
p2944
F0.155
sS'0.690'
p2945
F0.158
sS'0.840'
p2946
F0.147
sS'0.860'
p2947
F0.132
sS'0.820'
p2948
F0.153
sS'0.790'
p2949
F0.156
sS'0.710'
p2950
F0.159
sS'0.750'
p2951
F0.157
sS'0.770'
p2952
F0.156
sS'0.650'
p2953
F0.153
sS'0.730'
p2954
F0.158
sS'0.670'
p2955
F0.156
sS'0.810'
p2956
F0.155
sS'0.680'
p2957
F0.157
sS'0.870'
p2958
F0.121
sS'0.780'
p2959
F0.156
sS'0.830'
p2960
F0.151
sS'0.850'
p2961
F0.141
sS'0.700'
p2962
F0.159
ssS'65.0'
p2963
(dp2964
S'0.660'
p2965
F0.172
sS'0.640'
p2966
F0.17
sS'0.760'
p2967
F0.168
sS'0.600'
p2968
F0.164
sS'0.720'
p2969
F0.17
sS'0.740'
p2970
F0.169
sS'0.880'
p2971
F0.125
sS'0.800'
p2972
F0.165
sS'0.690'
p2973
F0.172
sS'0.840'
p2974
F0.156
sS'0.860'
p2975
F0.144
sS'0.820'
p2976
F0.162
sS'0.790'
p2977
F0.166
sS'0.630'
p2978
F0.169
sS'0.710'
p2979
F0.171
sS'0.750'
p2980
F0.168
sS'0.770'
p2981
F0.167
sS'0.650'
p2982
F0.171
sS'0.730'
p2983
F0.17
sS'0.610'
p2984
F0.166
sS'0.670'
p2985
F0.172
sS'0.810'
p2986
F0.164
sS'0.680'
p2987
F0.172
sS'0.870'
p2988
F0.134
sS'0.780'
p2989
F0.166
sS'0.830'
p2990
F0.16
sS'0.850'
p2991
F0.152
sS'0.700'
p2992
F0.171
sS'0.620'
p2993
F0.167
ssS'60.0'
p2994
(dp2995
S'0.660'
p2996
F0.179
sS'0.640'
p2997
F0.178
sS'0.760'
p2998
F0.173
sS'0.600'
p2999
F0.174
sS'0.580'
p3000
F0.171
sS'0.740'
p3001
F0.174
sS'0.880'
p3002
F0.132
sS'0.800'
p3003
F0.169
sS'0.690'
p3004
F0.178
sS'0.840'
p3005
F0.159
sS'0.860'
p3006
F0.148
sS'0.820'
p3007
F0.166
sS'0.790'
p3008
F0.17
sS'0.630'
p3009
F0.177
sS'0.710'
p3010
F0.177
sS'0.570'
p3011
F0.17
sS'0.720'
p3012
F0.176
sS'0.750'
p3013
F0.174
sS'0.770'
p3014
F0.172
sS'0.650'
p3015
F0.179
sS'0.590'
p3016
F0.173
sS'0.610'
p3017
F0.175
sS'0.670'
p3018
F0.179
sS'0.810'
p3019
F0.168
sS'0.680'
p3020
F0.178
sS'0.870'
p3021
F0.141
sS'0.730'
p3022
F0.175
sS'0.780'
p3023
F0.171
sS'0.830'
p3024
F0.163
sS'0.850'
p3025
F0.154
sS'0.700'
p3026
F0.177
sS'0.620'
p3027
F0.177
ssS'50.0'
p3028
(dp3029
S'0.660'
p3030
F0.192
sS'0.640'
p3031
F0.194
sS'0.760'
p3032
F0.183
sS'0.600'
p3033
F0.194
sS'0.580'
p3034
F0.192
sS'0.740'
p3035
F0.185
sS'0.880'
p3036
F0.14
sS'0.800'
p3037
F0.178
sS'0.790'
p3038
F0.179
sS'0.690'
p3039
F0.19
sS'0.840'
p3040
F0.166
sS'0.860'
p3041
F0.156
sS'0.820'
p3042
F0.173
sS'0.530'
p3043
F0.185
sS'0.630'
p3044
F0.194
sS'0.730'
p3045
F0.186
sS'0.570'
p3046
F0.191
sS'0.720'
p3047
F0.187
sS'0.750'
p3048
F0.184
sS'0.770'
p3049
F0.182
sS'0.650'
p3050
F0.193
sS'0.590'
p3051
F0.193
sS'0.610'
p3052
F0.194
sS'0.710'
p3053
F0.188
sS'0.670'
p3054
F0.191
sS'0.810'
p3055
F0.175
sS'0.680'
p3056
F0.191
sS'0.560'
p3057
F0.19
sS'0.870'
p3058
F0.149
sS'0.520'
p3059
F0.183
sS'0.830'
p3060
F0.17
sS'0.850'
p3061
F0.162
sS'0.550'
p3062
F0.188
sS'0.700'
p3063
F0.189
sS'0.780'
p3064
F0.181
sS'0.620'
p3065
F0.194
sS'0.540'
p3066
F0.187
ssS'85.0'
p3067
(dp3068
S'0.810'
p3069
F0.144
sS'0.680'
p3070
F0.14
sS'0.690'
p3071
F0.141
sS'0.750'
p3072
F0.146
sS'0.770'
p3073
F0.146
sS'0.760'
p3074
F0.146
sS'0.780'
p3075
F0.145
sS'0.730'
p3076
F0.146
sS'0.720'
p3077
F0.145
sS'0.800'
p3078
F0.145
sS'0.740'
p3079
F0.146
sS'0.790'
p3080
F0.145
sS'0.700'
p3081
F0.143
sS'0.840'
p3082
F0.137
sS'0.710'
p3083
F0.144
sS'0.820'
p3084
F0.143
sS'0.830'
p3085
F0.141
sS'0.850'
p3086
F0.129
sssS'20000'
p3087
(dp3088
S'55.0'
p3089
(dp3090
S'0.480'
p3091
F0.121
sS'0.640'
p3092
F0.105
sS'0.600'
p3093
F0.11
sS'0.580'
p3094
F0.112
sS'0.390'
p3095
F0.119
sS'0.720'
p3096
F0.095
sS'0.510'
p3097
F0.119
sS'0.470'
p3098
F0.121
sS'0.410'
p3099
F0.121
sS'0.450'
p3100
F0.122
sS'0.530'
p3101
F0.117
sS'0.630'
p3102
F0.106
sS'0.360'
p3103
F0.115
sS'0.710'
p3104
F0.096
sS'0.570'
p3105
F0.113
sS'0.550'
p3106
F0.115
sS'0.430'
p3107
F0.122
sS'0.650'
p3108
F0.103
sS'0.680'
p3109
F0.1
sS'0.590'
p3110
F0.111
sS'0.610'
p3111
F0.108
sS'0.490'
p3112
F0.12
sS'0.690'
p3113
F0.099
sS'0.660'
p3114
F0.102
sS'0.380'
p3115
F0.118
sS'0.460'
p3116
F0.122
sS'0.500'
p3117
F0.12
sS'0.560'
p3118
F0.114
sS'0.730'
p3119
F0.094
sS'0.520'
p3120
F0.118
sS'0.440'
p3121
F0.122
sS'0.700'
p3122
F0.098
sS'0.370'
p3123
F0.116
sS'0.620'
p3124
F0.107
sS'0.670'
p3125
F0.101
sS'0.400'
p3126
F0.12
sS'0.420'
p3127
F0.121
sS'0.540'
p3128
F0.116
ssS'80.0'
p3129
(dp3130
S'0.480'
p3131
F0.104
sS'0.640'
p3132
F0.099
sS'0.600'
p3133
F0.102
sS'0.580'
p3134
F0.103
sS'0.660'
p3135
F0.097
sS'0.720'
p3136
F0.091
sS'0.510'
p3137
F0.105
sS'0.470'
p3138
F0.103
sS'0.450'
p3139
F0.102
sS'0.530'
p3140
F0.105
sS'0.630'
p3141
F0.099
sS'0.710'
p3142
F0.092
sS'0.570'
p3143
F0.103
sS'0.550'
p3144
F0.104
sS'0.430'
p3145
F0.1
sS'0.650'
p3146
F0.098
sS'0.680'
p3147
F0.095
sS'0.590'
p3148
F0.102
sS'0.610'
p3149
F0.101
sS'0.490'
p3150
F0.104
sS'0.690'
p3151
F0.094
sS'0.460'
p3152
F0.103
sS'0.500'
p3153
F0.105
sS'0.560'
p3154
F0.104
sS'0.730'
p3155
F0.09
sS'0.520'
p3156
F0.105
sS'0.440'
p3157
F0.101
sS'0.700'
p3158
F0.093
sS'0.620'
p3159
F0.1
sS'0.670'
p3160
F0.096
sS'0.540'
p3161
F0.105
ssS'70.0'
p3162
(dp3163
S'0.480'
p3164
F0.111
sS'0.640'
p3165
F0.101
sS'0.600'
p3166
F0.105
sS'0.580'
p3167
F0.107
sS'0.660'
p3168
F0.099
sS'0.720'
p3169
F0.093
sS'0.510'
p3170
F0.111
sS'0.470'
p3171
F0.111
sS'0.410'
p3172
F0.106
sS'0.450'
p3173
F0.11
sS'0.530'
p3174
F0.11
sS'0.630'
p3175
F0.102
sS'0.710'
p3176
F0.094
sS'0.570'
p3177
F0.107
sS'0.550'
p3178
F0.109
sS'0.430'
p3179
F0.108
sS'0.650'
p3180
F0.1
sS'0.680'
p3181
F0.097
sS'0.590'
p3182
F0.106
sS'0.610'
p3183
F0.104
sS'0.490'
p3184
F0.111
sS'0.690'
p3185
F0.096
sS'0.460'
p3186
F0.11
sS'0.500'
p3187
F0.111
sS'0.560'
p3188
F0.108
sS'0.730'
p3189
F0.092
sS'0.520'
p3190
F0.11
sS'0.440'
p3191
F0.109
sS'0.700'
p3192
F0.095
sS'0.620'
p3193
F0.103
sS'0.670'
p3194
F0.098
sS'0.400'
p3195
F0.105
sS'0.420'
p3196
F0.107
sS'0.540'
p3197
F0.109
ssS'95.0'
p3198
(dp3199
S'0.480'
p3200
F0.094
sS'0.640'
p3201
F0.094
sS'0.600'
p3202
F0.096
sS'0.580'
p3203
F0.097
sS'0.660'
p3204
F0.093
sS'0.720'
p3205
F0.088
sS'0.510'
p3206
F0.096
sS'0.470'
p3207
F0.093
sS'0.530'
p3208
F0.097
sS'0.630'
p3209
F0.095
sS'0.710'
p3210
F0.089
sS'0.570'
p3211
F0.097
sS'0.550'
p3212
F0.097
sS'0.650'
p3213
F0.093
sS'0.590'
p3214
F0.097
sS'0.610'
p3215
F0.096
sS'0.490'
p3216
F0.095
sS'0.690'
p3217
F0.09
sS'0.680'
p3218
F0.091
sS'0.500'
p3219
F0.095
sS'0.560'
p3220
F0.097
sS'0.730'
p3221
F0.087
sS'0.520'
p3222
F0.096
sS'0.700'
p3223
F0.09
sS'0.620'
p3224
F0.095
sS'0.670'
p3225
F0.092
sS'0.540'
p3226
F0.097
ssS'90.0'
p3227
(dp3228
S'0.480'
p3229
F0.097
sS'0.640'
p3230
F0.096
sS'0.600'
p3231
F0.098
sS'0.580'
p3232
F0.099
sS'0.660'
p3233
F0.094
sS'0.720'
p3234
F0.089
sS'0.510'
p3235
F0.099
sS'0.470'
p3236
F0.096
sS'0.530'
p3237
F0.1
sS'0.630'
p3238
F0.096
sS'0.710'
p3239
F0.09
sS'0.570'
p3240
F0.099
sS'0.550'
p3241
F0.1
sS'0.650'
p3242
F0.095
sS'0.680'
p3243
F0.093
sS'0.590'
p3244
F0.098
sS'0.610'
p3245
F0.097
sS'0.490'
p3246
F0.098
sS'0.690'
p3247
F0.092
sS'0.460'
p3248
F0.095
sS'0.500'
p3249
F0.099
sS'0.560'
p3250
F0.099
sS'0.730'
p3251
F0.088
sS'0.520'
p3252
F0.099
sS'0.700'
p3253
F0.091
sS'0.620'
p3254
F0.097
sS'0.670'
p3255
F0.093
sS'0.540'
p3256
F0.1
ssS'75.0'
p3257
(dp3258
S'0.480'
p3259
F0.108
sS'0.640'
p3260
F0.1
sS'0.600'
p3261
F0.103
sS'0.580'
p3262
F0.105
sS'0.660'
p3263
F0.098
sS'0.720'
p3264
F0.092
sS'0.510'
p3265
F0.108
sS'0.470'
p3266
F0.107
sS'0.450'
p3267
F0.106
sS'0.530'
p3268
F0.107
sS'0.630'
p3269
F0.101
sS'0.710'
p3270
F0.093
sS'0.570'
p3271
F0.105
sS'0.550'
p3272
F0.107
sS'0.430'
p3273
F0.104
sS'0.650'
p3274
F0.099
sS'0.680'
p3275
F0.096
sS'0.590'
p3276
F0.104
sS'0.610'
p3277
F0.102
sS'0.490'
p3278
F0.108
sS'0.690'
p3279
F0.095
sS'0.460'
p3280
F0.107
sS'0.500'
p3281
F0.108
sS'0.560'
p3282
F0.106
sS'0.730'
p3283
F0.091
sS'0.520'
p3284
F0.108
sS'0.440'
p3285
F0.105
sS'0.700'
p3286
F0.094
sS'0.620'
p3287
F0.102
sS'0.670'
p3288
F0.097
sS'0.420'
p3289
F0.103
sS'0.540'
p3290
F0.107
ssS'65.0'
p3291
(dp3292
S'0.480'
p3293
F0.114
sS'0.640'
p3294
F0.103
sS'0.600'
p3295
F0.107
sS'0.580'
p3296
F0.109
sS'0.390'
p3297
F0.108
sS'0.720'
p3298
F0.094
sS'0.510'
p3299
F0.114
sS'0.470'
p3300
F0.114
sS'0.410'
p3301
F0.111
sS'0.450'
p3302
F0.114
sS'0.530'
p3303
F0.112
sS'0.630'
p3304
F0.104
sS'0.710'
p3305
F0.095
sS'0.570'
p3306
F0.109
sS'0.550'
p3307
F0.111
sS'0.430'
p3308
F0.113
sS'0.650'
p3309
F0.101
sS'0.680'
p3310
F0.098
sS'0.590'
p3311
F0.108
sS'0.610'
p3312
F0.106
sS'0.490'
p3313
F0.114
sS'0.690'
p3314
F0.097
sS'0.660'
p3315
F0.1
sS'0.460'
p3316
F0.114
sS'0.500'
p3317
F0.114
sS'0.560'
p3318
F0.11
sS'0.730'
p3319
F0.093
sS'0.520'
p3320
F0.113
sS'0.440'
p3321
F0.114
sS'0.700'
p3322
F0.096
sS'0.620'
p3323
F0.105
sS'0.670'
p3324
F0.099
sS'0.400'
p3325
F0.11
sS'0.420'
p3326
F0.112
sS'0.540'
p3327
F0.112
ssS'60.0'
p3328
(dp3329
S'0.480'
p3330
F0.118
sS'0.640'
p3331
F0.104
sS'0.600'
p3332
F0.108
sS'0.580'
p3333
F0.11
sS'0.390'
p3334
F0.114
sS'0.720'
p3335
F0.095
sS'0.510'
p3336
F0.116
sS'0.470'
p3337
F0.118
sS'0.410'
p3338
F0.116
sS'0.450'
p3339
F0.118
sS'0.530'
p3340
F0.115
sS'0.630'
p3341
F0.105
sS'0.710'
p3342
F0.096
sS'0.570'
p3343
F0.111
sS'0.550'
p3344
F0.113
sS'0.430'
p3345
F0.117
sS'0.650'
p3346
F0.103
sS'0.680'
p3347
F0.099
sS'0.590'
p3348
F0.109
sS'0.610'
p3349
F0.107
sS'0.490'
p3350
F0.117
sS'0.690'
p3351
F0.098
sS'0.660'
p3352
F0.102
sS'0.380'
p3353
F0.112
sS'0.460'
p3354
F0.118
sS'0.500'
p3355
F0.117
sS'0.560'
p3356
F0.112
sS'0.730'
p3357
F0.094
sS'0.520'
p3358
F0.116
sS'0.440'
p3359
F0.118
sS'0.700'
p3360
F0.097
sS'0.370'
p3361
F0.11
sS'0.620'
p3362
F0.106
sS'0.670'
p3363
F0.1
sS'0.400'
p3364
F0.115
sS'0.420'
p3365
F0.117
sS'0.540'
p3366
F0.114
ssS'50.0'
p3367
(dp3368
S'0.480'
p3369
F0.124
sS'0.640'
p3370
F0.106
sS'0.600'
p3371
F0.111
sS'0.580'
p3372
F0.114
sS'0.390'
p3373
F0.125
sS'0.720'
p3374
F0.096
sS'0.510'
p3375
F0.121
sS'0.470'
p3376
F0.125
sS'0.410'
p3377
F0.126
sS'0.450'
p3378
F0.126
sS'0.530'
p3379
F0.119
sS'0.630'
p3380
F0.107
sS'0.360'
p3381
F0.121
sS'0.710'
p3382
F0.097
sS'0.340'
p3383
F0.117
sS'0.570'
p3384
F0.115
sS'0.550'
p3385
F0.117
sS'0.430'
p3386
F0.126
sS'0.650'
p3387
F0.105
sS'0.680'
p3388
F0.101
sS'0.590'
p3389
F0.112
sS'0.610'
p3390
F0.11
sS'0.490'
p3391
F0.123
sS'0.690'
p3392
F0.1
sS'0.660'
p3393
F0.103
sS'0.380'
p3394
F0.124
sS'0.460'
p3395
F0.125
sS'0.500'
p3396
F0.122
sS'0.560'
p3397
F0.116
sS'0.730'
p3398
F0.095
sS'0.520'
p3399
F0.12
sS'0.440'
p3400
F0.126
sS'0.700'
p3401
F0.099
sS'0.370'
p3402
F0.123
sS'0.620'
p3403
F0.108
sS'0.670'
p3404
F0.102
sS'0.400'
p3405
F0.125
sS'0.420'
p3406
F0.126
sS'0.540'
p3407
F0.118
sS'0.350'
p3408
F0.119
ssS'85.0'
p3409
(dp3410
S'0.480'
p3411
F0.101
sS'0.640'
p3412
F0.097
sS'0.600'
p3413
F0.1
sS'0.580'
p3414
F0.101
sS'0.660'
p3415
F0.095
sS'0.720'
p3416
F0.09
sS'0.510'
p3417
F0.102
sS'0.470'
p3418
F0.1
sS'0.450'
p3419
F0.098
sS'0.530'
p3420
F0.102
sS'0.630'
p3421
F0.098
sS'0.710'
p3422
F0.091
sS'0.570'
p3423
F0.101
sS'0.550'
p3424
F0.102
sS'0.650'
p3425
F0.096
sS'0.680'
p3426
F0.094
sS'0.590'
p3427
F0.1
sS'0.610'
p3428
F0.099
sS'0.490'
p3429
F0.101
sS'0.690'
p3430
F0.093
sS'0.460'
p3431
F0.099
sS'0.500'
p3432
F0.102
sS'0.560'
p3433
F0.102
sS'0.730'
p3434
F0.089
sS'0.520'
p3435
F0.102
sS'0.440'
p3436
F0.096
sS'0.700'
p3437
F0.092
sS'0.620'
p3438
F0.098
sS'0.670'
p3439
F0.095
sS'0.540'
p3440
F0.102
sssS'10000'
p3441
(dp3442
S'55.0'
p3443
(dp3444
S'0.480'
p3445
F0.09
sS'0.600'
p3446
F0.078
sS'0.580'
p3447
F0.08
sS'0.310'
p3448
F0.092
sS'0.330'
p3449
F0.094
sS'0.390'
p3450
F0.096
sS'0.290'
p3451
F0.089
sS'0.510'
p3452
F0.087
sS'0.470'
p3453
F0.091
sS'0.410'
p3454
F0.095
sS'0.450'
p3455
F0.093
sS'0.530'
p3456
F0.085
sS'0.360'
p3457
F0.096
sS'0.300'
p3458
F0.091
sS'0.340'
p3459
F0.095
sS'0.570'
p3460
F0.081
sS'0.550'
p3461
F0.083
sS'0.430'
p3462
F0.094
sS'0.590'
p3463
F0.079
sS'0.610'
p3464
F0.077
sS'0.490'
p3465
F0.089
sS'0.320'
p3466
F0.093
sS'0.380'
p3467
F0.096
sS'0.460'
p3468
F0.092
sS'0.500'
p3469
F0.088
sS'0.560'
p3470
F0.082
sS'0.520'
p3471
F0.086
sS'0.440'
p3472
F0.094
sS'0.370'
p3473
F0.096
sS'0.400'
p3474
F0.096
sS'0.420'
p3475
F0.095
sS'0.540'
p3476
F0.084
sS'0.350'
p3477
F0.096
ssS'80.0'
p3478
(dp3479
S'0.480'
p3480
F0.084
sS'0.600'
p3481
F0.075
sS'0.580'
p3482
F0.077
sS'0.390'
p3483
F0.084
sS'0.510'
p3484
F0.082
sS'0.470'
p3485
F0.084
sS'0.410'
p3486
F0.085
sS'0.450'
p3487
F0.085
sS'0.530'
p3488
F0.081
sS'0.360'
p3489
F0.081
sS'0.570'
p3490
F0.078
sS'0.550'
p3491
F0.079
sS'0.430'
p3492
F0.085
sS'0.590'
p3493
F0.076
sS'0.610'
p3494
F0.075
sS'0.490'
p3495
F0.083
sS'0.380'
p3496
F0.083
sS'0.460'
p3497
F0.084
sS'0.500'
p3498
F0.083
sS'0.560'
p3499
F0.078
sS'0.520'
p3500
F0.081
sS'0.440'
p3501
F0.085
sS'0.370'
p3502
F0.082
sS'0.400'
p3503
F0.084
sS'0.420'
p3504
F0.085
sS'0.540'
p3505
F0.08
sS'0.350'
p3506
F0.08
ssS'70.0'
p3507
(dp3508
S'0.480'
p3509
F0.086
sS'0.600'
p3510
F0.077
sS'0.580'
p3511
F0.078
sS'0.330'
p3512
F0.084
sS'0.390'
p3513
F0.089
sS'0.510'
p3514
F0.084
sS'0.470'
p3515
F0.087
sS'0.410'
p3516
F0.089
sS'0.450'
p3517
F0.088
sS'0.530'
p3518
F0.083
sS'0.360'
p3519
F0.087
sS'0.340'
p3520
F0.085
sS'0.570'
p3521
F0.079
sS'0.550'
p3522
F0.081
sS'0.430'
p3523
F0.089
sS'0.590'
p3524
F0.077
sS'0.610'
p3525
F0.076
sS'0.490'
p3526
F0.086
sS'0.380'
p3527
F0.088
sS'0.460'
p3528
F0.088
sS'0.500'
p3529
F0.085
sS'0.560'
p3530
F0.08
sS'0.520'
p3531
F0.083
sS'0.440'
p3532
F0.088
sS'0.370'
p3533
F0.088
sS'0.400'
p3534
F0.089
sS'0.420'
p3535
F0.089
sS'0.540'
p3536
F0.082
sS'0.350'
p3537
F0.086
ssS'95.0'
p3538
(dp3539
S'0.480'
p3540
F0.079
sS'0.600'
p3541
F0.073
sS'0.580'
p3542
F0.074
sS'0.390'
p3543
F0.076
sS'0.510'
p3544
F0.078
sS'0.470'
p3545
F0.079
sS'0.410'
p3546
F0.078
sS'0.450'
p3547
F0.079
sS'0.530'
p3548
F0.077
sS'0.570'
p3549
F0.075
sS'0.550'
p3550
F0.076
sS'0.430'
p3551
F0.079
sS'0.590'
p3552
F0.074
sS'0.610'
p3553
F0.073
sS'0.490'
p3554
F0.079
sS'0.380'
p3555
F0.075
sS'0.460'
p3556
F0.079
sS'0.500'
p3557
F0.079
sS'0.560'
p3558
F0.076
sS'0.520'
p3559
F0.078
sS'0.440'
p3560
F0.079
sS'0.400'
p3561
F0.077
sS'0.420'
p3562
F0.078
sS'0.540'
p3563
F0.077
ssS'90.0'
p3564
(dp3565
S'0.480'
p3566
F0.081
sS'0.600'
p3567
F0.074
sS'0.580'
p3568
F0.075
sS'0.390'
p3569
F0.078
sS'0.510'
p3570
F0.08
sS'0.470'
p3571
F0.081
sS'0.410'
p3572
F0.08
sS'0.450'
p3573
F0.081
sS'0.530'
p3574
F0.079
sS'0.570'
p3575
F0.076
sS'0.550'
p3576
F0.077
sS'0.430'
p3577
F0.081
sS'0.590'
p3578
F0.075
sS'0.610'
p3579
F0.073
sS'0.490'
p3580
F0.08
sS'0.380'
p3581
F0.077
sS'0.460'
p3582
F0.081
sS'0.500'
p3583
F0.08
sS'0.560'
p3584
F0.077
sS'0.520'
p3585
F0.079
sS'0.440'
p3586
F0.081
sS'0.400'
p3587
F0.079
sS'0.420'
p3588
F0.08
sS'0.540'
p3589
F0.078
ssS'75.0'
p3590
(dp3591
S'0.480'
p3592
F0.085
sS'0.600'
p3593
F0.076
sS'0.580'
p3594
F0.078
sS'0.390'
p3595
F0.086
sS'0.510'
p3596
F0.083
sS'0.470'
p3597
F0.086
sS'0.410'
p3598
F0.087
sS'0.450'
p3599
F0.086
sS'0.530'
p3600
F0.082
sS'0.360'
p3601
F0.084
sS'0.340'
p3602
F0.082
sS'0.570'
p3603
F0.079
sS'0.550'
p3604
F0.08
sS'0.430'
p3605
F0.087
sS'0.590'
p3606
F0.077
sS'0.610'
p3607
F0.075
sS'0.490'
p3608
F0.085
sS'0.380'
p3609
F0.086
sS'0.460'
p3610
F0.086
sS'0.500'
p3611
F0.084
sS'0.560'
p3612
F0.079
sS'0.520'
p3613
F0.082
sS'0.440'
p3614
F0.087
sS'0.370'
p3615
F0.085
sS'0.400'
p3616
F0.087
sS'0.420'
p3617
F0.087
sS'0.540'
p3618
F0.081
sS'0.350'
p3619
F0.083
ssS'65.0'
p3620
(dp3621
S'0.480'
p3622
F0.088
sS'0.600'
p3623
F0.077
sS'0.580'
p3624
F0.079
sS'0.330'
p3625
F0.087
sS'0.390'
p3626
F0.091
sS'0.510'
p3627
F0.085
sS'0.470'
p3628
F0.088
sS'0.410'
p3629
F0.091
sS'0.450'
p3630
F0.09
sS'0.530'
p3631
F0.084
sS'0.360'
p3632
F0.09
sS'0.340'
p3633
F0.088
sS'0.570'
p3634
F0.08
sS'0.550'
p3635
F0.082
sS'0.430'
p3636
F0.091
sS'0.590'
p3637
F0.078
sS'0.610'
p3638
F0.076
sS'0.490'
p3639
F0.087
sS'0.320'
p3640
F0.086
sS'0.380'
p3641
F0.091
sS'0.460'
p3642
F0.089
sS'0.500'
p3643
F0.086
sS'0.560'
p3644
F0.081
sS'0.520'
p3645
F0.084
sS'0.440'
p3646
F0.09
sS'0.370'
p3647
F0.091
sS'0.400'
p3648
F0.091
sS'0.420'
p3649
F0.091
sS'0.540'
p3650
F0.083
sS'0.350'
p3651
F0.089
ssS'60.0'
p3652
(dp3653
S'0.480'
p3654
F0.089
sS'0.600'
p3655
F0.078
sS'0.580'
p3656
F0.079
sS'0.310'
p3657
F0.088
sS'0.330'
p3658
F0.091
sS'0.390'
p3659
F0.094
sS'0.510'
p3660
F0.086
sS'0.470'
p3661
F0.09
sS'0.410'
p3662
F0.093
sS'0.450'
p3663
F0.091
sS'0.530'
p3664
F0.084
sS'0.360'
p3665
F0.093
sS'0.340'
p3666
F0.092
sS'0.570'
p3667
F0.08
sS'0.550'
p3668
F0.082
sS'0.430'
p3669
F0.092
sS'0.590'
p3670
F0.079
sS'0.610'
p3671
F0.077
sS'0.490'
p3672
F0.088
sS'0.320'
p3673
F0.09
sS'0.380'
p3674
F0.094
sS'0.460'
p3675
F0.091
sS'0.500'
p3676
F0.087
sS'0.560'
p3677
F0.081
sS'0.520'
p3678
F0.085
sS'0.440'
p3679
F0.092
sS'0.370'
p3680
F0.093
sS'0.400'
p3681
F0.094
sS'0.420'
p3682
F0.093
sS'0.540'
p3683
F0.083
sS'0.350'
p3684
F0.093
ssS'50.0'
p3685
(dp3686
S'0.480'
p3687
F0.091
sS'0.600'
p3688
F0.079
sS'0.580'
p3689
F0.081
sS'0.310'
p3690
F0.096
sS'0.330'
p3691
F0.098
sS'0.390'
p3692
F0.098
sS'0.290'
p3693
F0.093
sS'0.510'
p3694
F0.088
sS'0.470'
p3695
F0.092
sS'0.410'
p3696
F0.097
sS'0.450'
p3697
F0.094
sS'0.530'
p3698
F0.086
sS'0.360'
p3699
F0.099
sS'0.300'
p3700
F0.095
sS'0.340'
p3701
F0.098
sS'0.570'
p3702
F0.082
sS'0.550'
p3703
F0.084
sS'0.430'
p3704
F0.096
sS'0.590'
p3705
F0.08
sS'0.610'
p3706
F0.078
sS'0.490'
p3707
F0.09
sS'0.320'
p3708
F0.097
sS'0.280'
p3709
F0.091
sS'0.380'
p3710
F0.098
sS'0.460'
p3711
F0.093
sS'0.500'
p3712
F0.089
sS'0.560'
p3713
F0.083
sS'0.520'
p3714
F0.087
sS'0.440'
p3715
F0.095
sS'0.370'
p3716
F0.099
sS'0.400'
p3717
F0.098
sS'0.420'
p3718
F0.097
sS'0.540'
p3719
F0.085
sS'0.350'
p3720
F0.099
ssS'85.0'
p3721
(dp3722
S'0.480'
p3723
F0.082
sS'0.600'
p3724
F0.075
sS'0.580'
p3725
F0.076
sS'0.390'
p3726
F0.081
sS'0.510'
p3727
F0.081
sS'0.470'
p3728
F0.083
sS'0.410'
p3729
F0.082
sS'0.450'
p3730
F0.083
sS'0.530'
p3731
F0.08
sS'0.360'
p3732
F0.078
sS'0.570'
p3733
F0.077
sS'0.550'
p3734
F0.078
sS'0.430'
p3735
F0.083
sS'0.590'
p3736
F0.076
sS'0.610'
p3737
F0.074
sS'0.490'
p3738
F0.082
sS'0.380'
p3739
F0.08
sS'0.460'
p3740
F0.083
sS'0.500'
p3741
F0.081
sS'0.560'
p3742
F0.078
sS'0.520'
p3743
F0.08
sS'0.440'
p3744
F0.083
sS'0.370'
p3745
F0.079
sS'0.400'
p3746
F0.082
sS'0.420'
p3747
F0.083
sS'0.540'
p3748
F0.079
sssS'51000'
p3749
(dp3750
S'54.0'
p3751
(dp3752
S'0.750'
p3753
F0.22
sS'0.770'
p3754
F0.223
sS'0.760'
p3755
F0.222
sS'0.780'
p3756
F0.224
sS'0.730'
p3757
F0.216
sS'0.720'
p3758
F0.214
sS'0.740'
p3759
F0.219
sS'0.790'
p3760
F0.224
sS'0.810'
p3761
F0.222
sS'0.800'
p3762
F0.224
sS'0.820'
p3763
F0.22
sS'0.830'
p3764
F0.214
ssS'56.0'
p3765
(dp3766
S'0.750'
p3767
F0.213
sS'0.770'
p3768
F0.215
sS'0.760'
p3769
F0.214
sS'0.780'
p3770
F0.216
sS'0.820'
p3771
F0.21
sS'0.740'
p3772
F0.21
sS'0.790'
p3773
F0.216
sS'0.810'
p3774
F0.213
sS'0.800'
p3775
F0.215
ssS'50.0'
p3776
(dp3777
S'0.810'
p3778
F0.235
sS'0.750'
p3779
F0.234
sS'0.770'
p3780
F0.235
sS'0.760'
p3781
F0.235
sS'0.780'
p3782
F0.236
sS'0.730'
p3783
F0.232
sS'0.720'
p3784
F0.23
sS'0.800'
p3785
F0.236
sS'0.740'
p3786
F0.233
sS'0.790'
p3787
F0.236
sS'0.700'
p3788
F0.225
sS'0.840'
p3789
F0.224
sS'0.710'
p3790
F0.228
sS'0.820'
p3791
F0.233
sS'0.830'
p3792
F0.23
ssS'52.0'
p3793
(dp3794
S'0.750'
p3795
F0.227
sS'0.770'
p3796
F0.229
sS'0.760'
p3797
F0.228
sS'0.780'
p3798
F0.229
sS'0.730'
p3799
F0.224
sS'0.720'
p3800
F0.222
sS'0.800'
p3801
F0.23
sS'0.740'
p3802
F0.226
sS'0.790'
p3803
F0.23
sS'0.810'
p3804
F0.23
sS'0.840'
p3805
F0.214
sS'0.710'
p3806
F0.219
sS'0.820'
p3807
F0.228
sS'0.830'
p3808
F0.223
sssS'33000'
p3809
(dp3810
S'55.0'
p3811
(dp3812
S'0.480'
p3813
F0.154
sS'0.640'
p3814
F0.16
sS'0.760'
p3815
F0.146
sS'0.600'
p3816
F0.163
sS'0.580'
p3817
F0.163
sS'0.740'
p3818
F0.149
sS'0.880'
p3819
F0.109
sS'0.660'
p3820
F0.158
sS'0.720'
p3821
F0.151
sS'0.800'
p3822
F0.14
sS'0.790'
p3823
F0.142
sS'0.510'
p3824
F0.159
sS'0.690'
p3825
F0.154
sS'0.840'
p3826
F0.129
sS'0.860'
p3827
F0.121
sS'0.820'
p3828
F0.135
sS'0.530'
p3829
F0.161
sS'0.630'
p3830
F0.161
sS'0.710'
p3831
F0.152
sS'0.570'
p3832
F0.163
sS'0.550'
p3833
F0.163
sS'0.750'
p3834
F0.148
sS'0.770'
p3835
F0.145
sS'0.650'
p3836
F0.159
sS'0.590'
p3837
F0.163
sS'0.610'
p3838
F0.162
sS'0.490'
p3839
F0.156
sS'0.810'
p3840
F0.138
sS'0.680'
p3841
F0.156
sS'0.500'
p3842
F0.158
sS'0.560'
p3843
F0.163
sS'0.870'
p3844
F0.115
sS'0.730'
p3845
F0.15
sS'0.520'
p3846
F0.16
sS'0.830'
p3847
F0.133
sS'0.850'
p3848
F0.125
sS'0.700'
p3849
F0.153
sS'0.780'
p3850
F0.144
sS'0.620'
p3851
F0.162
sS'0.670'
p3852
F0.157
sS'0.540'
p3853
F0.162
ssS'80.0'
p3854
(dp3855
S'0.660'
p3856
F0.137
sS'0.640'
p3857
F0.137
sS'0.760'
p3858
F0.132
sS'0.600'
p3859
F0.134
sS'0.580'
p3860
F0.132
sS'0.740'
p3861
F0.133
sS'0.880'
p3862
F0.098
sS'0.800'
p3863
F0.129
sS'0.690'
p3864
F0.136
sS'0.840'
p3865
F0.121
sS'0.860'
p3866
F0.112
sS'0.820'
p3867
F0.126
sS'0.790'
p3868
F0.13
sS'0.630'
p3869
F0.137
sS'0.710'
p3870
F0.135
sS'0.570'
p3871
F0.13
sS'0.720'
p3872
F0.134
sS'0.750'
p3873
F0.132
sS'0.770'
p3874
F0.131
sS'0.650'
p3875
F0.137
sS'0.590'
p3876
F0.133
sS'0.610'
p3877
F0.135
sS'0.670'
p3878
F0.137
sS'0.810'
p3879
F0.128
sS'0.680'
p3880
F0.137
sS'0.870'
p3881
F0.106
sS'0.730'
p3882
F0.134
sS'0.780'
p3883
F0.131
sS'0.830'
p3884
F0.124
sS'0.850'
p3885
F0.117
sS'0.700'
p3886
F0.136
sS'0.620'
p3887
F0.136
ssS'70.0'
p3888
(dp3889
S'0.660'
p3890
F0.146
sS'0.640'
p3891
F0.147
sS'0.760'
p3892
F0.138
sS'0.600'
p3893
F0.147
sS'0.580'
p3894
F0.145
sS'0.740'
p3895
F0.14
sS'0.880'
p3896
F0.104
sS'0.800'
p3897
F0.134
sS'0.690'
p3898
F0.144
sS'0.840'
p3899
F0.125
sS'0.860'
p3900
F0.116
sS'0.820'
p3901
F0.13
sS'0.790'
p3902
F0.135
sS'0.630'
p3903
F0.147
sS'0.730'
p3904
F0.141
sS'0.570'
p3905
F0.144
sS'0.720'
p3906
F0.141
sS'0.750'
p3907
F0.139
sS'0.770'
p3908
F0.137
sS'0.650'
p3909
F0.147
sS'0.590'
p3910
F0.146
sS'0.610'
p3911
F0.147
sS'0.710'
p3912
F0.142
sS'0.670'
p3913
F0.145
sS'0.810'
p3914
F0.132
sS'0.680'
p3915
F0.145
sS'0.560'
p3916
F0.143
sS'0.870'
p3917
F0.111
sS'0.780'
p3918
F0.136
sS'0.830'
p3919
F0.128
sS'0.850'
p3920
F0.121
sS'0.550'
p3921
F0.142
sS'0.700'
p3922
F0.143
sS'0.620'
p3923
F0.147
sS'0.540'
p3924
F0.14
ssS'95.0'
p3925
(dp3926
S'0.660'
p3927
F0.123
sS'0.640'
p3928
F0.121
sS'0.760'
p3929
F0.123
sS'0.720'
p3930
F0.124
sS'0.740'
p3931
F0.123
sS'0.800'
p3932
F0.121
sS'0.690'
p3933
F0.125
sS'0.840'
p3934
F0.114
sS'0.860'
p3935
F0.104
sS'0.820'
p3936
F0.118
sS'0.790'
p3937
F0.121
sS'0.630'
p3938
F0.12
sS'0.710'
p3939
F0.124
sS'0.750'
p3940
F0.123
sS'0.770'
p3941
F0.122
sS'0.650'
p3942
F0.122
sS'0.730'
p3943
F0.124
sS'0.670'
p3944
F0.124
sS'0.810'
p3945
F0.12
sS'0.680'
p3946
F0.125
sS'0.780'
p3947
F0.122
sS'0.830'
p3948
F0.117
sS'0.850'
p3949
F0.11
sS'0.700'
p3950
F0.125
sS'0.620'
p3951
F0.119
ssS'90.0'
p3952
(dp3953
S'0.660'
p3954
F0.128
sS'0.640'
p3955
F0.127
sS'0.760'
p3956
F0.126
sS'0.720'
p3957
F0.127
sS'0.740'
p3958
F0.127
sS'0.800'
p3959
F0.124
sS'0.690'
p3960
F0.129
sS'0.840'
p3961
F0.116
sS'0.860'
p3962
F0.106
sS'0.820'
p3963
F0.121
sS'0.790'
p3964
F0.124
sS'0.630'
p3965
F0.126
sS'0.710'
p3966
F0.128
sS'0.750'
p3967
F0.126
sS'0.770'
p3968
F0.125
sS'0.650'
p3969
F0.128
sS'0.730'
p3970
F0.127
sS'0.610'
p3971
F0.123
sS'0.670'
p3972
F0.128
sS'0.810'
p3973
F0.123
sS'0.680'
p3974
F0.129
sS'0.870'
p3975
F0.099
sS'0.780'
p3976
F0.125
sS'0.830'
p3977
F0.119
sS'0.850'
p3978
F0.111
sS'0.700'
p3979
F0.128
sS'0.620'
p3980
F0.125
ssS'75.0'
p3981
(dp3982
S'0.660'
p3983
F0.141
sS'0.640'
p3984
F0.142
sS'0.760'
p3985
F0.135
sS'0.600'
p3986
F0.141
sS'0.580'
p3987
F0.139
sS'0.740'
p3988
F0.136
sS'0.880'
p3989
F0.102
sS'0.800'
p3990
F0.131
sS'0.690'
p3991
F0.14
sS'0.840'
p3992
F0.123
sS'0.860'
p3993
F0.115
sS'0.820'
p3994
F0.128
sS'0.790'
p3995
F0.132
sS'0.630'
p3996
F0.142
sS'0.730'
p3997
F0.137
sS'0.570'
p3998
F0.137
sS'0.720'
p3999
F0.138
sS'0.750'
p4000
F0.135
sS'0.770'
p4001
F0.134
sS'0.650'
p4002
F0.142
sS'0.590'
p4003
F0.14
sS'0.610'
p4004
F0.141
sS'0.710'
p4005
F0.138
sS'0.670'
p4006
F0.141
sS'0.810'
p4007
F0.13
sS'0.680'
p4008
F0.14
sS'0.560'
p4009
F0.136
sS'0.870'
p4010
F0.109
sS'0.780'
p4011
F0.133
sS'0.830'
p4012
F0.126
sS'0.850'
p4013
F0.119
sS'0.700'
p4014
F0.139
sS'0.620'
p4015
F0.142
ssS'65.0'
p4016
(dp4017
S'0.660'
p4018
F0.15
sS'0.640'
p4019
F0.151
sS'0.760'
p4020
F0.14
sS'0.600'
p4021
F0.152
sS'0.580'
p4022
F0.152
sS'0.740'
p4023
F0.143
sS'0.880'
p4024
F0.105
sS'0.800'
p4025
F0.136
sS'0.790'
p4026
F0.137
sS'0.690'
p4027
F0.147
sS'0.840'
p4028
F0.126
sS'0.860'
p4029
F0.118
sS'0.820'
p4030
F0.132
sS'0.530'
p4031
F0.146
sS'0.630'
p4032
F0.152
sS'0.730'
p4033
F0.144
sS'0.570'
p4034
F0.151
sS'0.720'
p4035
F0.145
sS'0.750'
p4036
F0.142
sS'0.770'
p4037
F0.139
sS'0.650'
p4038
F0.151
sS'0.590'
p4039
F0.152
sS'0.610'
p4040
F0.152
sS'0.710'
p4041
F0.145
sS'0.670'
p4042
F0.149
sS'0.810'
p4043
F0.134
sS'0.680'
p4044
F0.148
sS'0.560'
p4045
F0.15
sS'0.870'
p4046
F0.112
sS'0.520'
p4047
F0.144
sS'0.830'
p4048
F0.129
sS'0.850'
p4049
F0.123
sS'0.550'
p4050
F0.149
sS'0.700'
p4051
F0.146
sS'0.780'
p4052
F0.138
sS'0.620'
p4053
F0.152
sS'0.540'
p4054
F0.147
ssS'60.0'
p4055
(dp4056
S'0.660'
p4057
F0.154
sS'0.640'
p4058
F0.156
sS'0.760'
p4059
F0.143
sS'0.600'
p4060
F0.158
sS'0.580'
p4061
F0.158
sS'0.740'
p4062
F0.146
sS'0.880'
p4063
F0.107
sS'0.720'
p4064
F0.148
sS'0.800'
p4065
F0.138
sS'0.790'
p4066
F0.14
sS'0.510'
p4067
F0.151
sS'0.690'
p4068
F0.151
sS'0.840'
p4069
F0.128
sS'0.860'
p4070
F0.119
sS'0.820'
p4071
F0.134
sS'0.530'
p4072
F0.154
sS'0.630'
p4073
F0.156
sS'0.710'
p4074
F0.149
sS'0.570'
p4075
F0.158
sS'0.550'
p4076
F0.156
sS'0.750'
p4077
F0.144
sS'0.770'
p4078
F0.142
sS'0.650'
p4079
F0.155
sS'0.590'
p4080
F0.158
sS'0.610'
p4081
F0.158
sS'0.670'
p4082
F0.153
sS'0.810'
p4083
F0.136
sS'0.680'
p4084
F0.152
sS'0.500'
p4085
F0.149
sS'0.560'
p4086
F0.157
sS'0.870'
p4087
F0.114
sS'0.730'
p4088
F0.147
sS'0.520'
p4089
F0.152
sS'0.830'
p4090
F0.131
sS'0.850'
p4091
F0.124
sS'0.700'
p4092
F0.15
sS'0.780'
p4093
F0.141
sS'0.620'
p4094
F0.157
sS'0.540'
p4095
F0.155
ssS'50.0'
p4096
(dp4097
S'0.480'
p4098
F0.164
sS'0.640'
p4099
F0.164
sS'0.760'
p4100
F0.149
sS'0.600'
p4101
F0.168
sS'0.580'
p4102
F0.169
sS'0.740'
p4103
F0.152
sS'0.880'
p4104
F0.111
sS'0.660'
p4105
F0.162
sS'0.720'
p4106
F0.155
sS'0.800'
p4107
F0.142
sS'0.790'
p4108
F0.144
sS'0.510'
p4109
F0.168
sS'0.470'
p4110
F0.163
sS'0.840'
p4111
F0.131
sS'0.860'
p4112
F0.122
sS'0.450'
p4113
F0.159
sS'0.820'
p4114
F0.137
sS'0.530'
p4115
F0.169
sS'0.630'
p4116
F0.166
sS'0.710'
p4117
F0.156
sS'0.570'
p4118
F0.17
sS'0.550'
p4119
F0.17
sS'0.750'
p4120
F0.151
sS'0.770'
p4121
F0.147
sS'0.650'
p4122
F0.163
sS'0.680'
p4123
F0.16
sS'0.590'
p4124
F0.169
sS'0.610'
p4125
F0.168
sS'0.490'
p4126
F0.166
sS'0.690'
p4127
F0.158
sS'0.810'
p4128
F0.14
sS'0.460'
p4129
F0.161
sS'0.500'
p4130
F0.167
sS'0.560'
p4131
F0.17
sS'0.870'
p4132
F0.117
sS'0.730'
p4133
F0.153
sS'0.520'
p4134
F0.168
sS'0.830'
p4135
F0.134
sS'0.850'
p4136
F0.127
sS'0.700'
p4137
F0.157
sS'0.780'
p4138
F0.146
sS'0.620'
p4139
F0.167
sS'0.670'
p4140
F0.161
sS'0.540'
p4141
F0.169
ssS'85.0'
p4142
(dp4143
S'0.660'
p4144
F0.133
sS'0.640'
p4145
F0.132
sS'0.760'
p4146
F0.129
sS'0.600'
p4147
F0.128
sS'0.720'
p4148
F0.131
sS'0.740'
p4149
F0.13
sS'0.800'
p4150
F0.126
sS'0.690'
p4151
F0.133
sS'0.840'
p4152
F0.119
sS'0.860'
p4153
F0.11
sS'0.820'
p4154
F0.124
sS'0.790'
p4155
F0.127
sS'0.630'
p4156
F0.131
sS'0.710'
p4157
F0.132
sS'0.750'
p4158
F0.129
sS'0.770'
p4159
F0.128
sS'0.650'
p4160
F0.133
sS'0.590'
p4161
F0.127
sS'0.610'
p4162
F0.129
sS'0.670'
p4163
F0.133
sS'0.810'
p4164
F0.125
sS'0.680'
p4165
F0.133
sS'0.870'
p4166
F0.103
sS'0.730'
p4167
F0.131
sS'0.780'
p4168
F0.128
sS'0.830'
p4169
F0.122
sS'0.850'
p4170
F0.115
sS'0.700'
p4171
F0.132
sS'0.620'
p4172
F0.13
sssS'47000'
p4173
(dp4174
S'60.0'
p4175
(dp4176
S'0.810'
p4177
F0.201
sS'0.690'
p4178
F0.193
sS'0.750'
p4179
F0.203
sS'0.770'
p4180
F0.203
sS'0.760'
p4181
F0.203
sS'0.780'
p4182
F0.203
sS'0.730'
p4183
F0.201
sS'0.720'
p4184
F0.2
sS'0.800'
p4185
F0.202
sS'0.740'
p4186
F0.202
sS'0.790'
p4187
F0.203
sS'0.700'
p4188
F0.196
sS'0.840'
p4189
F0.19
sS'0.710'
p4190
F0.198
sS'0.820'
p4191
F0.199
sS'0.830'
p4192
F0.195
sS'0.850'
p4193
F0.181
ssS'70.0'
p4194
(dp4195
S'0.750'
p4196
F0.17
sS'0.770'
p4197
F0.173
sS'0.760'
p4198
F0.172
sS'0.780'
p4199
F0.174
sS'0.790'
p4200
F0.174
sS'0.810'
p4201
F0.171
sS'0.800'
p4202
F0.173
ssS'55.0'
p4203
(dp4204
S'0.810'
p4205
F0.212
sS'0.680'
p4206
F0.209
sS'0.690'
p4207
F0.211
sS'0.660'
p4208
F0.203
sS'0.770'
p4209
F0.215
sS'0.760'
p4210
F0.215
sS'0.780'
p4211
F0.215
sS'0.730'
p4212
F0.215
sS'0.720'
p4213
F0.215
sS'0.800'
p4214
F0.214
sS'0.670'
p4215
F0.206
sS'0.840'
p4216
F0.202
sS'0.740'
p4217
F0.215
sS'0.790'
p4218
F0.214
sS'0.700'
p4219
F0.212
sS'0.750'
p4220
F0.215
sS'0.710'
p4221
F0.214
sS'0.820'
p4222
F0.211
sS'0.830'
p4223
F0.207
sS'0.850'
p4224
F0.194
ssS'50.0'
p4225
(dp4226
S'0.660'
p4227
F0.22
sS'0.640'
p4228
F0.216
sS'0.760'
p4229
F0.226
sS'0.720'
p4230
F0.226
sS'0.740'
p4231
F0.226
sS'0.800'
p4232
F0.224
sS'0.690'
p4233
F0.225
sS'0.840'
p4234
F0.213
sS'0.860'
p4235
F0.193
sS'0.820'
p4236
F0.221
sS'0.790'
p4237
F0.225
sS'0.630'
p4238
F0.213
sS'0.710'
p4239
F0.226
sS'0.750'
p4240
F0.226
sS'0.770'
p4241
F0.226
sS'0.650'
p4242
F0.218
sS'0.730'
p4243
F0.226
sS'0.670'
p4244
F0.222
sS'0.810'
p4245
F0.223
sS'0.680'
p4246
F0.223
sS'0.780'
p4247
F0.225
sS'0.830'
p4248
F0.218
sS'0.850'
p4249
F0.205
sS'0.700'
p4250
F0.225
ssS'65.0'
p4251
(dp4252
S'0.750'
p4253
F0.189
sS'0.770'
p4254
F0.19
sS'0.760'
p4255
F0.189
sS'0.780'
p4256
F0.19
sS'0.730'
p4257
F0.185
sS'0.720'
p4258
F0.183
sS'0.740'
p4259
F0.187
sS'0.790'
p4260
F0.19
sS'0.810'
p4261
F0.188
sS'0.800'
p4262
F0.19
sS'0.820'
p4263
F0.185
sS'0.830'
p4264
F0.181
sss.