(dp0
S'098'
p1
(F-102.5
F33.0
F0.0
F0.0
tp2
sS'099'
p3
(F-101.25
F33.0
F0.0
F0.0
tp4
sS'090'
p5
(F-98.2271
F34.5937
F0.0
F0.0
tp6
sS'091'
p7
(F-97.5
F34.5
F0.0
F0.0
tp8
sS'092'
p9
(F-111.1864
F32.7991
F0.0
F0.0
tp10
sS'093'
p11
(F-110.0
F33.0
F0.0
F0.0
tp12
sS'094'
p13
(F-108.6379
F32.9864
F0.0
F0.0
tp14
sS'095'
p15
(F-107.5
F33.0
F0.0
F0.0
tp16
sS'096'
p17
(F-105.0
F33.0
F0.0
F0.0
tp18
sS'097'
p19
(F-103.6363
F32.8723
F0.0
F0.0
tp20
sS'010'
p21
(F-99.9567
F44.7527
F0.0
F0.0
tp22
sS'011'
p23
(F-98.75
F44.75
F0.0
F0.0
tp24
sS'012'
p25
(F-97.5
F44.75
F0.0
F0.0
tp26
sS'013'
p27
(F-111.378
F43.5732
F0.0
F0.0
tp28
sS'014'
p29
(F-109.9953
F43.5502
F0.0
F0.0
tp30
sS'015'
p31
(F-107.5
F43.5
F0.0
F0.0
tp32
sS'016'
p33
(F-106.341
F43.4544
F0.0
F0.0
tp34
sS'017'
p35
(F-105.0
F43.5
F0.0
F0.0
tp36
sS'018'
p37
(F-103.75
F43.5
F0.0
F0.0
tp38
sS'019'
p39
(F-102.4628
F42.8473
F0.0
F0.0
tp40
sS'RAF'
p41
(F-105.138988
F39.913041
F0.0
F0.0
tp42
sS'025'
p43
(F-110.0
F42.0
F0.0
F0.0
tp44
sS'024'
p45
(F-111.25
F42.0
F0.0
F0.0
tp46
sS'027'
p47
(F-107.6735
F42.0842
F0.0
F0.0
tp48
sS'026'
p49
(F-108.75
F42.0
F0.0
F0.0
tp50
sS'021'
p51
(F-100.0315
F43.5304
F0.0
F0.0
tp52
sS'020'
p53
(F-100.8315
F42.8122
F0.0
F0.0
tp54
sS'023'
p55
(F-97.5
F43.5
F0.0
F0.0
tp56
sS'022'
p57
(F-98.75
F43.5
F0.0
F0.0
tp58
sS'029'
p59
(F-105.0383
F41.9552
F0.0
F0.0
tp60
sS'028'
p61
(F-106.25
F42.0
F0.0
F0.0
tp62
sS'038'
p63
(F-108.7879
F40.3476
F0.0
F0.0
tp64
sS'039'
p65
(F-107.4642
F40.4048
F0.0
F0.0
tp66
sS'032'
p67
(F-101.25
F42.0
F0.0
F0.0
tp68
sS'033'
p69
(F-100.0
F42.0
F0.0
F0.0
tp70
sS'030'
p71
(F-103.779
F42.0154
F0.0
F0.0
tp72
sS'031'
p73
(F-102.5382
F41.9721
F0.0
F0.0
tp74
sS'036'
p75
(F-110.8845
F40.7153
F0.0
F0.0
tp76
sS'037'
p77
(F-109.9975
F41.0
F0.0
F0.0
tp78
sS'034'
p79
(F-98.75
F42.0
F0.0
F0.0
tp80
sS'035'
p81
(F-97.388
F42.0792
F0.0
F0.0
tp82
sS'049'
p83
(F-109.8614
F38.9902
F0.0
F0.0
tp84
sS'048'
p85
(F-111.256
F39.0012
F0.0
F0.0
tp86
sS'047'
p87
(F-98.0003
F40.5313
F0.0
F0.0
tp88
sS'046'
p89
(F-98.7267
F40.5179
F0.0
F0.0
tp90
sS'045'
p91
(F-100.0
F40.5
F0.0
F0.0
tp92
sS'044'
p93
(F-101.25
F40.5
F0.0
F0.0
tp94
sS'043'
p95
(F-102.4833
F40.5757
F0.0
F0.0
tp96
sS'042'
p97
(F-103.7468
F39.8113
F0.0
F0.0
tp98
sS'041'
p99
(F-103.9969
F41.0016
F0.0
F0.0
tp100
sS'040'
p101
(F-106.2863
F40.5663
F0.0
F0.0
tp102
sS'102'
p103
(F-103.7567
F31.5154
F0.0
F0.0
tp104
sS'058'
p105
(F-98.7812
F38.673
F0.0
F0.0
tp106
sS'059'
p107
(F-97.5129
F38.712
F0.0
F0.0
tp108
sS'103'
p109
(F-102.5
F31.5
F0.0
F0.0
tp110
sS'054'
p111
(F-103.6305
F38.5292
F0.0
F0.0
tp112
sS'055'
p113
(F-102.4449
F39.0769
F0.0
F0.0
tp114
sS'056'
p115
(F-101.25
F39.0
F0.0
F0.0
tp116
sS'057'
p117
(F-99.8834
F38.7396
F0.0
F0.0
tp118
sS'050'
p119
(F-108.824
F38.7773
F0.0
F0.0
tp120
sS'051'
p121
(F-107.5
F39.0
F0.0
F0.0
tp122
sS'052'
p123
(F-106.2727
F39.0498
F0.0
F0.0
tp124
sS'053'
p125
(F-106.2388
F38.2192
F0.0
F0.0
tp126
sS'101'
p127
(F-104.9987
F31.5431
F0.0
F0.0
tp128
sS'106'
p129
(F-98.75
F31.5
F0.0
F0.0
tp130
sS'107'
p131
(F-97.3811
F31.3749
F0.0
F0.0
tp132
sS'104'
p133
(F-101.25
F31.5
F0.0
F0.0
tp134
sS'105'
p135
(F-100.0
F31.5
F0.0
F0.0
tp136
sS'061'
p137
(F-110.0747
F37.8125
F0.0
F0.0
tp138
sS'060'
p139
(F-111.25
F37.5
F0.0
F0.0
tp140
sS'063'
p141
(F-107.5
F37.5
F0.0
F0.0
tp142
sS'062'
p143
(F-108.7443
F37.5908
F0.0
F0.0
tp144
sS'065'
p145
(F-105.0
F37.5
F0.0
F0.0
tp146
sS'064'
p147
(F-106.25
F37.5
F0.0
F0.0
tp148
sS'067'
p149
(F-102.3598
F37.4838
F0.0
F0.0
tp150
sS'066'
p151
(F-103.75
F37.5
F0.0
F0.0
tp152
sS'069'
p153
(F-100.0
F37.5
F0.0
F0.0
tp154
sS'068'
p155
(F-101.2873
F37.5407
F0.0
F0.0
tp156
sS'076'
p157
(F-102.5465
F36.0302
F0.0
F0.0
tp158
sS'077'
p159
(F-101.2216
F36.013
F0.0
F0.0
tp160
sS'074'
p161
(F-104.99
F35.9208
F0.0
F0.0
tp162
sS'075'
p163
(F-103.75
F36.0
F0.0
F0.0
tp164
sS'072'
p165
(F-107.5
F36.0
F0.0
F0.0
tp166
sS'073'
p167
(F-106.3358
F36.4521
F0.0
F0.0
tp168
sS'070'
p169
(F-98.7477
F37.5102
F0.0
F0.0
tp170
sS'071'
p171
(F-97.1047
F37.3419
F0.0
F0.0
tp172
sS'078'
p173
(F-100.0
F36.0
F0.0
F0.0
tp174
sS'079'
p175
(F-98.75
F36.0
F0.0
F0.0
tp176
sS'100'
p177
(F-100.0
F33.0
F0.0
F0.0
tp178
sS'089'
p179
(F-100.0
F34.5
F0.0
F0.0
tp180
sS'088'
p181
(F-101.218
F34.3719
F0.0
F0.0
tp182
sS'083'
p183
(F-108.75
F34.5
F0.0
F0.0
tp184
sS'082'
p185
(F-110.0474
F34.5244
F0.0
F0.0
tp186
sS'081'
p187
(F-111.25
F34.5
F0.0
F0.0
tp188
sS'080'
p189
(F-97.2721
F35.9949
F0.0
F0.0
tp190
sS'087'
p191
(F-102.5565
F34.5373
F0.0
F0.0
tp192
sS'086'
p193
(F-105.0
F34.5
F0.0
F0.0
tp194
sS'085'
p195
(F-106.25
F34.5
F0.0
F0.0
tp196
sS'084'
p197
(F-107.6357
F34.0523
F0.0
F0.0
tp198
sS'003'
p199
(F-108.7457
F44.8084
F0.0
F0.0
tp200
sS'002'
p201
(F-110.0
F44.75
F0.0
F0.0
tp202
sS'001'
p203
(F-111.0453
F44.789
F0.0
F0.0
tp204
sS'007'
p205
(F-103.8753
F44.7443
F0.0
F0.0
tp206
sS'006'
p207
(F-105.0
F44.75
F0.0
F0.0
tp208
sS'005'
p209
(F-106.25
F44.75
F0.0
F0.0
tp210
sS'004'
p211
(F-107.5
F44.75
F0.0
F0.0
tp212
sS'009'
p213
(F-101.1849
F44.2416
F0.0
F0.0
tp214
sS'008'
p215
(F-102.4298
F44.7624
F0.0
F0.0
tp216
s.