(dp0
S'RAF'
p1
(F-105.138988
F39.913041
F0.0
F0.0
tp2
sVCYS
p3
(F-104.77333333333333
F41.211666666666666
F0.0
F0.0
tp4
sS'SLN'
p5
(F-97.621361
F38.925139
F0.0
F0.0
tp6
sVBJC
p7
(F-105.11666666666666
F39.90833333333333
F0.0
F0.0
tp8
s.