(dp0
VCYS
p1
(F-104.77333333333333
F41.211666666666666
F0.0
F0.0
tp2
sVBJC
p3
(F-97.652000000000001
F38.790999999999997
F0.0
F0.0
tp4
sVArmor
p5
(F-86.771304999999998
F34.645969999999998
F0.0
F0.0
tp6
sVLubbock
p7
(F-101.85469999999999
F33.577800000000003
F0.0
F0.0
tp8
sVPawnee
p9
(F-104.714
F40.87115
F0.0
F0.0
tp10
sS'SLN'
p11
(F-97.621360999999993
F38.925139000000001
F0.0
F0.0
tp12
sVKhtx
p13
(F-86.083333333333329
F34.93333333333333
F0.0
F0.0
tp14
sVAirport
p15
(F-97.652169999999998
F38.790965999999997
F0.0
F0.0
tp16
sVCZI
p17
(F-106.435997
F43.999699
F0.0
F0.0
tp18
sVKoun
p19
(F-97.465999999999994
F35.238329999999998
F0.0
F0.0
tp20
sVChill
p21
(F-104.63708
F40.446249999999999
F0.0
F0.0
tp22
s.