(dp0
VCYS
p1
(F-104.77333333333333
F41.211666666666666
F0.0
F0.0
tp2
sVBJC
p3
(F-105.11666666666666
F39.90833333333333
F0.0
F0.0
tp4
sVARMOR
p5
(F-86.771306
F34.64597
F0.0
F0.0
tp6
sVLubbock
p7
(F-101.8547
F33.5778
F0.0
F0.0
tp8
sVPAWNEE
p9
(F-104.714
F40.87115
F0.0
F0.0
tp10
sVKHTX
p11
(F-87.285
F36.7367
F0.0
F0.0
tp12
sS'SLN'
p13
(F-97.621361
F38.925139
F0.0
F0.0
tp14
sVCZI
p15
(F-106.435997
F43.999699
F0.0
F0.0
tp16
sVKOUN
p17
(F-97.466
F35.23833
F0.0
F0.0
tp18
sVCHILL
p19
(F-104.63708
F40.44625
F0.0
F0.0
tp20
s.